ARM GAS  /tmp/cc2u48vv.s 			page 1


   1              		.cpu cortex-m4
   2              		.eabi_attribute 27, 1
   3              		.eabi_attribute 28, 1
   4              		.eabi_attribute 20, 1
   5              		.eabi_attribute 21, 1
   6              		.eabi_attribute 23, 3
   7              		.eabi_attribute 24, 1
   8              		.eabi_attribute 25, 1
   9              		.eabi_attribute 26, 1
  10              		.eabi_attribute 30, 1
  11              		.eabi_attribute 34, 1
  12              		.eabi_attribute 18, 4
  13              		.file	"stm32f4xx_ll_fmc.c"
  14              		.text
  15              	.Ltext0:
  16              		.cfi_sections	.debug_frame
  17              		.section	.text.FMC_NORSRAM_Init,"ax",%progbits
  18              		.align	1
  19              		.global	FMC_NORSRAM_Init
  20              		.arch armv7e-m
  21              		.syntax unified
  22              		.thumb
  23              		.thumb_func
  24              		.fpu fpv4-sp-d16
  26              	FMC_NORSRAM_Init:
  27              	.LVL0:
  28              	.LFB130:
  29              		.file 1 "../Drivers/STM32F4xx_HAL_Driver/Src/stm32f4xx_ll_fmc.c"
   1:../Drivers/STM32F4xx_HAL_Driver/Src/stm32f4xx_ll_fmc.c **** /**
   2:../Drivers/STM32F4xx_HAL_Driver/Src/stm32f4xx_ll_fmc.c ****   ******************************************************************************
   3:../Drivers/STM32F4xx_HAL_Driver/Src/stm32f4xx_ll_fmc.c ****   * @file    stm32f4xx_ll_fmc.c
   4:../Drivers/STM32F4xx_HAL_Driver/Src/stm32f4xx_ll_fmc.c ****   * @author  MCD Application Team
   5:../Drivers/STM32F4xx_HAL_Driver/Src/stm32f4xx_ll_fmc.c ****   * @brief   FMC Low Layer HAL module driver.
   6:../Drivers/STM32F4xx_HAL_Driver/Src/stm32f4xx_ll_fmc.c ****   *    
   7:../Drivers/STM32F4xx_HAL_Driver/Src/stm32f4xx_ll_fmc.c ****   *          This file provides firmware functions to manage the following 
   8:../Drivers/STM32F4xx_HAL_Driver/Src/stm32f4xx_ll_fmc.c ****   *          functionalities of the Flexible Memory Controller (FMC) peripheral memories:
   9:../Drivers/STM32F4xx_HAL_Driver/Src/stm32f4xx_ll_fmc.c ****   *           + Initialization/de-initialization functions
  10:../Drivers/STM32F4xx_HAL_Driver/Src/stm32f4xx_ll_fmc.c ****   *           + Peripheral Control functions 
  11:../Drivers/STM32F4xx_HAL_Driver/Src/stm32f4xx_ll_fmc.c ****   *           + Peripheral State functions
  12:../Drivers/STM32F4xx_HAL_Driver/Src/stm32f4xx_ll_fmc.c ****   *         
  13:../Drivers/STM32F4xx_HAL_Driver/Src/stm32f4xx_ll_fmc.c ****   @verbatim
  14:../Drivers/STM32F4xx_HAL_Driver/Src/stm32f4xx_ll_fmc.c ****   ==============================================================================
  15:../Drivers/STM32F4xx_HAL_Driver/Src/stm32f4xx_ll_fmc.c ****                         ##### FMC peripheral features #####
  16:../Drivers/STM32F4xx_HAL_Driver/Src/stm32f4xx_ll_fmc.c ****   ==============================================================================
  17:../Drivers/STM32F4xx_HAL_Driver/Src/stm32f4xx_ll_fmc.c ****   [..] The Flexible memory controller (FMC) includes three memory controllers:
  18:../Drivers/STM32F4xx_HAL_Driver/Src/stm32f4xx_ll_fmc.c ****        (+) The NOR/PSRAM memory controller
  19:../Drivers/STM32F4xx_HAL_Driver/Src/stm32f4xx_ll_fmc.c ****        (+) The NAND/PC Card memory controller
  20:../Drivers/STM32F4xx_HAL_Driver/Src/stm32f4xx_ll_fmc.c ****        (+) The Synchronous DRAM (SDRAM) controller 
  21:../Drivers/STM32F4xx_HAL_Driver/Src/stm32f4xx_ll_fmc.c ****        
  22:../Drivers/STM32F4xx_HAL_Driver/Src/stm32f4xx_ll_fmc.c ****   [..] The FMC functional block makes the interface with synchronous and asynchronous static
  23:../Drivers/STM32F4xx_HAL_Driver/Src/stm32f4xx_ll_fmc.c ****        memories, SDRAM memories, and 16-bit PC memory cards. Its main purposes are:
  24:../Drivers/STM32F4xx_HAL_Driver/Src/stm32f4xx_ll_fmc.c ****        (+) to translate AHB transactions into the appropriate external device protocol
  25:../Drivers/STM32F4xx_HAL_Driver/Src/stm32f4xx_ll_fmc.c ****        (+) to meet the access time requirements of the external memory devices
  26:../Drivers/STM32F4xx_HAL_Driver/Src/stm32f4xx_ll_fmc.c ****    
  27:../Drivers/STM32F4xx_HAL_Driver/Src/stm32f4xx_ll_fmc.c ****   [..] All external memories share the addresses, data and control signals with the controller.
  28:../Drivers/STM32F4xx_HAL_Driver/Src/stm32f4xx_ll_fmc.c ****        Each external device is accessed by means of a unique Chip Select. The FMC performs
  29:../Drivers/STM32F4xx_HAL_Driver/Src/stm32f4xx_ll_fmc.c ****        only one access at a time to an external device.
ARM GAS  /tmp/cc2u48vv.s 			page 2


  30:../Drivers/STM32F4xx_HAL_Driver/Src/stm32f4xx_ll_fmc.c ****        The main features of the FMC controller are the following:
  31:../Drivers/STM32F4xx_HAL_Driver/Src/stm32f4xx_ll_fmc.c ****         (+) Interface with static-memory mapped devices including:
  32:../Drivers/STM32F4xx_HAL_Driver/Src/stm32f4xx_ll_fmc.c ****            (++) Static random access memory (SRAM)
  33:../Drivers/STM32F4xx_HAL_Driver/Src/stm32f4xx_ll_fmc.c ****            (++) Read-only memory (ROM)
  34:../Drivers/STM32F4xx_HAL_Driver/Src/stm32f4xx_ll_fmc.c ****            (++) NOR Flash memory/OneNAND Flash memory
  35:../Drivers/STM32F4xx_HAL_Driver/Src/stm32f4xx_ll_fmc.c ****            (++) PSRAM (4 memory banks)
  36:../Drivers/STM32F4xx_HAL_Driver/Src/stm32f4xx_ll_fmc.c ****            (++) 16-bit PC Card compatible devices
  37:../Drivers/STM32F4xx_HAL_Driver/Src/stm32f4xx_ll_fmc.c ****            (++) Two banks of NAND Flash memory with ECC hardware to check up to 8 Kbytes of
  38:../Drivers/STM32F4xx_HAL_Driver/Src/stm32f4xx_ll_fmc.c ****                 data
  39:../Drivers/STM32F4xx_HAL_Driver/Src/stm32f4xx_ll_fmc.c ****         (+) Interface with synchronous DRAM (SDRAM) memories
  40:../Drivers/STM32F4xx_HAL_Driver/Src/stm32f4xx_ll_fmc.c ****         (+) Independent Chip Select control for each memory bank
  41:../Drivers/STM32F4xx_HAL_Driver/Src/stm32f4xx_ll_fmc.c ****         (+) Independent configuration for each memory bank
  42:../Drivers/STM32F4xx_HAL_Driver/Src/stm32f4xx_ll_fmc.c ****                     
  43:../Drivers/STM32F4xx_HAL_Driver/Src/stm32f4xx_ll_fmc.c ****   @endverbatim
  44:../Drivers/STM32F4xx_HAL_Driver/Src/stm32f4xx_ll_fmc.c ****   ******************************************************************************
  45:../Drivers/STM32F4xx_HAL_Driver/Src/stm32f4xx_ll_fmc.c ****   * @attention
  46:../Drivers/STM32F4xx_HAL_Driver/Src/stm32f4xx_ll_fmc.c ****   *
  47:../Drivers/STM32F4xx_HAL_Driver/Src/stm32f4xx_ll_fmc.c ****   * <h2><center>&copy; Copyright (c) 2017 STMicroelectronics.
  48:../Drivers/STM32F4xx_HAL_Driver/Src/stm32f4xx_ll_fmc.c ****   * All rights reserved.</center></h2>
  49:../Drivers/STM32F4xx_HAL_Driver/Src/stm32f4xx_ll_fmc.c ****   *
  50:../Drivers/STM32F4xx_HAL_Driver/Src/stm32f4xx_ll_fmc.c ****   * This software component is licensed by ST under BSD 3-Clause license,
  51:../Drivers/STM32F4xx_HAL_Driver/Src/stm32f4xx_ll_fmc.c ****   * the "License"; You may not use this file except in compliance with the
  52:../Drivers/STM32F4xx_HAL_Driver/Src/stm32f4xx_ll_fmc.c ****   * License. You may obtain a copy of the License at:
  53:../Drivers/STM32F4xx_HAL_Driver/Src/stm32f4xx_ll_fmc.c ****   *                        opensource.org/licenses/BSD-3-Clause
  54:../Drivers/STM32F4xx_HAL_Driver/Src/stm32f4xx_ll_fmc.c ****   *
  55:../Drivers/STM32F4xx_HAL_Driver/Src/stm32f4xx_ll_fmc.c ****   ******************************************************************************
  56:../Drivers/STM32F4xx_HAL_Driver/Src/stm32f4xx_ll_fmc.c ****   */ 
  57:../Drivers/STM32F4xx_HAL_Driver/Src/stm32f4xx_ll_fmc.c **** 
  58:../Drivers/STM32F4xx_HAL_Driver/Src/stm32f4xx_ll_fmc.c **** /* Includes ------------------------------------------------------------------*/
  59:../Drivers/STM32F4xx_HAL_Driver/Src/stm32f4xx_ll_fmc.c **** #include "stm32f4xx_hal.h"
  60:../Drivers/STM32F4xx_HAL_Driver/Src/stm32f4xx_ll_fmc.c **** 
  61:../Drivers/STM32F4xx_HAL_Driver/Src/stm32f4xx_ll_fmc.c **** /** @addtogroup STM32F4xx_HAL_Driver
  62:../Drivers/STM32F4xx_HAL_Driver/Src/stm32f4xx_ll_fmc.c ****   * @{
  63:../Drivers/STM32F4xx_HAL_Driver/Src/stm32f4xx_ll_fmc.c ****   */
  64:../Drivers/STM32F4xx_HAL_Driver/Src/stm32f4xx_ll_fmc.c **** 
  65:../Drivers/STM32F4xx_HAL_Driver/Src/stm32f4xx_ll_fmc.c **** /** @defgroup FMC_LL  FMC Low Layer
  66:../Drivers/STM32F4xx_HAL_Driver/Src/stm32f4xx_ll_fmc.c ****   * @brief FMC driver modules
  67:../Drivers/STM32F4xx_HAL_Driver/Src/stm32f4xx_ll_fmc.c ****   * @{
  68:../Drivers/STM32F4xx_HAL_Driver/Src/stm32f4xx_ll_fmc.c ****   */
  69:../Drivers/STM32F4xx_HAL_Driver/Src/stm32f4xx_ll_fmc.c **** 
  70:../Drivers/STM32F4xx_HAL_Driver/Src/stm32f4xx_ll_fmc.c **** #if defined (HAL_SRAM_MODULE_ENABLED) || defined(HAL_NOR_MODULE_ENABLED) || defined(HAL_NAND_MODULE
  71:../Drivers/STM32F4xx_HAL_Driver/Src/stm32f4xx_ll_fmc.c **** 
  72:../Drivers/STM32F4xx_HAL_Driver/Src/stm32f4xx_ll_fmc.c **** #if defined(STM32F427xx) || defined(STM32F437xx) || defined(STM32F429xx) || defined(STM32F439xx) ||
  73:../Drivers/STM32F4xx_HAL_Driver/Src/stm32f4xx_ll_fmc.c **** 
  74:../Drivers/STM32F4xx_HAL_Driver/Src/stm32f4xx_ll_fmc.c **** /* Private typedef -----------------------------------------------------------*/
  75:../Drivers/STM32F4xx_HAL_Driver/Src/stm32f4xx_ll_fmc.c **** /* Private define ------------------------------------------------------------*/
  76:../Drivers/STM32F4xx_HAL_Driver/Src/stm32f4xx_ll_fmc.c **** /* Private macro -------------------------------------------------------------*/
  77:../Drivers/STM32F4xx_HAL_Driver/Src/stm32f4xx_ll_fmc.c **** /* Private variables ---------------------------------------------------------*/
  78:../Drivers/STM32F4xx_HAL_Driver/Src/stm32f4xx_ll_fmc.c **** /* Private function prototypes -----------------------------------------------*/
  79:../Drivers/STM32F4xx_HAL_Driver/Src/stm32f4xx_ll_fmc.c **** /* Private functions ---------------------------------------------------------*/
  80:../Drivers/STM32F4xx_HAL_Driver/Src/stm32f4xx_ll_fmc.c **** /** @addtogroup FMC_LL_Private_Functions
  81:../Drivers/STM32F4xx_HAL_Driver/Src/stm32f4xx_ll_fmc.c ****   * @{
  82:../Drivers/STM32F4xx_HAL_Driver/Src/stm32f4xx_ll_fmc.c ****   */
  83:../Drivers/STM32F4xx_HAL_Driver/Src/stm32f4xx_ll_fmc.c **** 
  84:../Drivers/STM32F4xx_HAL_Driver/Src/stm32f4xx_ll_fmc.c **** /** @addtogroup FMC_LL_NORSRAM
  85:../Drivers/STM32F4xx_HAL_Driver/Src/stm32f4xx_ll_fmc.c ****   * @brief  NORSRAM Controller functions 
  86:../Drivers/STM32F4xx_HAL_Driver/Src/stm32f4xx_ll_fmc.c ****   *
ARM GAS  /tmp/cc2u48vv.s 			page 3


  87:../Drivers/STM32F4xx_HAL_Driver/Src/stm32f4xx_ll_fmc.c ****   @verbatim 
  88:../Drivers/STM32F4xx_HAL_Driver/Src/stm32f4xx_ll_fmc.c ****   ==============================================================================   
  89:../Drivers/STM32F4xx_HAL_Driver/Src/stm32f4xx_ll_fmc.c ****                    ##### How to use NORSRAM device driver #####
  90:../Drivers/STM32F4xx_HAL_Driver/Src/stm32f4xx_ll_fmc.c ****   ==============================================================================
  91:../Drivers/STM32F4xx_HAL_Driver/Src/stm32f4xx_ll_fmc.c ****  
  92:../Drivers/STM32F4xx_HAL_Driver/Src/stm32f4xx_ll_fmc.c ****   [..] 
  93:../Drivers/STM32F4xx_HAL_Driver/Src/stm32f4xx_ll_fmc.c ****     This driver contains a set of APIs to interface with the FMC NORSRAM banks in order
  94:../Drivers/STM32F4xx_HAL_Driver/Src/stm32f4xx_ll_fmc.c ****     to run the NORSRAM external devices.
  95:../Drivers/STM32F4xx_HAL_Driver/Src/stm32f4xx_ll_fmc.c ****       
  96:../Drivers/STM32F4xx_HAL_Driver/Src/stm32f4xx_ll_fmc.c ****     (+) FMC NORSRAM bank reset using the function FMC_NORSRAM_DeInit() 
  97:../Drivers/STM32F4xx_HAL_Driver/Src/stm32f4xx_ll_fmc.c ****     (+) FMC NORSRAM bank control configuration using the function FMC_NORSRAM_Init()
  98:../Drivers/STM32F4xx_HAL_Driver/Src/stm32f4xx_ll_fmc.c ****     (+) FMC NORSRAM bank timing configuration using the function FMC_NORSRAM_Timing_Init()
  99:../Drivers/STM32F4xx_HAL_Driver/Src/stm32f4xx_ll_fmc.c ****     (+) FMC NORSRAM bank extended timing configuration using the function 
 100:../Drivers/STM32F4xx_HAL_Driver/Src/stm32f4xx_ll_fmc.c ****         FMC_NORSRAM_Extended_Timing_Init()
 101:../Drivers/STM32F4xx_HAL_Driver/Src/stm32f4xx_ll_fmc.c ****     (+) FMC NORSRAM bank enable/disable write operation using the functions
 102:../Drivers/STM32F4xx_HAL_Driver/Src/stm32f4xx_ll_fmc.c ****         FMC_NORSRAM_WriteOperation_Enable()/FMC_NORSRAM_WriteOperation_Disable()
 103:../Drivers/STM32F4xx_HAL_Driver/Src/stm32f4xx_ll_fmc.c ****         
 104:../Drivers/STM32F4xx_HAL_Driver/Src/stm32f4xx_ll_fmc.c **** 
 105:../Drivers/STM32F4xx_HAL_Driver/Src/stm32f4xx_ll_fmc.c **** @endverbatim
 106:../Drivers/STM32F4xx_HAL_Driver/Src/stm32f4xx_ll_fmc.c ****   * @{
 107:../Drivers/STM32F4xx_HAL_Driver/Src/stm32f4xx_ll_fmc.c ****   */
 108:../Drivers/STM32F4xx_HAL_Driver/Src/stm32f4xx_ll_fmc.c ****        
 109:../Drivers/STM32F4xx_HAL_Driver/Src/stm32f4xx_ll_fmc.c **** /** @addtogroup FMC_LL_NORSRAM_Private_Functions_Group1
 110:../Drivers/STM32F4xx_HAL_Driver/Src/stm32f4xx_ll_fmc.c ****   * @brief    Initialization and Configuration functions 
 111:../Drivers/STM32F4xx_HAL_Driver/Src/stm32f4xx_ll_fmc.c ****   *
 112:../Drivers/STM32F4xx_HAL_Driver/Src/stm32f4xx_ll_fmc.c ****   @verbatim    
 113:../Drivers/STM32F4xx_HAL_Driver/Src/stm32f4xx_ll_fmc.c ****   ==============================================================================
 114:../Drivers/STM32F4xx_HAL_Driver/Src/stm32f4xx_ll_fmc.c ****               ##### Initialization and de_initialization functions #####
 115:../Drivers/STM32F4xx_HAL_Driver/Src/stm32f4xx_ll_fmc.c ****   ==============================================================================
 116:../Drivers/STM32F4xx_HAL_Driver/Src/stm32f4xx_ll_fmc.c ****   [..]  
 117:../Drivers/STM32F4xx_HAL_Driver/Src/stm32f4xx_ll_fmc.c ****     This section provides functions allowing to:
 118:../Drivers/STM32F4xx_HAL_Driver/Src/stm32f4xx_ll_fmc.c ****     (+) Initialize and configure the FMC NORSRAM interface
 119:../Drivers/STM32F4xx_HAL_Driver/Src/stm32f4xx_ll_fmc.c ****     (+) De-initialize the FMC NORSRAM interface 
 120:../Drivers/STM32F4xx_HAL_Driver/Src/stm32f4xx_ll_fmc.c ****     (+) Configure the FMC clock and associated GPIOs    
 121:../Drivers/STM32F4xx_HAL_Driver/Src/stm32f4xx_ll_fmc.c ****  
 122:../Drivers/STM32F4xx_HAL_Driver/Src/stm32f4xx_ll_fmc.c **** @endverbatim
 123:../Drivers/STM32F4xx_HAL_Driver/Src/stm32f4xx_ll_fmc.c ****   * @{
 124:../Drivers/STM32F4xx_HAL_Driver/Src/stm32f4xx_ll_fmc.c ****   */
 125:../Drivers/STM32F4xx_HAL_Driver/Src/stm32f4xx_ll_fmc.c ****   
 126:../Drivers/STM32F4xx_HAL_Driver/Src/stm32f4xx_ll_fmc.c **** /**
 127:../Drivers/STM32F4xx_HAL_Driver/Src/stm32f4xx_ll_fmc.c ****   * @brief  Initialize the FMC_NORSRAM device according to the specified
 128:../Drivers/STM32F4xx_HAL_Driver/Src/stm32f4xx_ll_fmc.c ****   *         control parameters in the FMC_NORSRAM_InitTypeDef
 129:../Drivers/STM32F4xx_HAL_Driver/Src/stm32f4xx_ll_fmc.c ****   * @param  Device Pointer to NORSRAM device instance
 130:../Drivers/STM32F4xx_HAL_Driver/Src/stm32f4xx_ll_fmc.c ****   * @param  Init Pointer to NORSRAM Initialization structure   
 131:../Drivers/STM32F4xx_HAL_Driver/Src/stm32f4xx_ll_fmc.c ****   * @retval HAL status
 132:../Drivers/STM32F4xx_HAL_Driver/Src/stm32f4xx_ll_fmc.c ****   */
 133:../Drivers/STM32F4xx_HAL_Driver/Src/stm32f4xx_ll_fmc.c **** HAL_StatusTypeDef  FMC_NORSRAM_Init(FMC_NORSRAM_TypeDef *Device, FMC_NORSRAM_InitTypeDef* Init)
 134:../Drivers/STM32F4xx_HAL_Driver/Src/stm32f4xx_ll_fmc.c **** { 
  30              		.loc 1 134 1 view -0
  31              		.cfi_startproc
  32              		@ args = 0, pretend = 0, frame = 0
  33              		@ frame_needed = 0, uses_anonymous_args = 0
  34              		@ link register save eliminated.
  35              		.loc 1 134 1 is_stmt 0 view .LVU1
  36 0000 70B4     		push	{r4, r5, r6}
  37              	.LCFI0:
  38              		.cfi_def_cfa_offset 12
ARM GAS  /tmp/cc2u48vv.s 			page 4


  39              		.cfi_offset 4, -12
  40              		.cfi_offset 5, -8
  41              		.cfi_offset 6, -4
 135:../Drivers/STM32F4xx_HAL_Driver/Src/stm32f4xx_ll_fmc.c ****   uint32_t tmpr = 0U;
  42              		.loc 1 135 3 is_stmt 1 view .LVU2
  43              	.LVL1:
 136:../Drivers/STM32F4xx_HAL_Driver/Src/stm32f4xx_ll_fmc.c ****     
 137:../Drivers/STM32F4xx_HAL_Driver/Src/stm32f4xx_ll_fmc.c ****   /* Check the parameters */
 138:../Drivers/STM32F4xx_HAL_Driver/Src/stm32f4xx_ll_fmc.c ****   assert_param(IS_FMC_NORSRAM_DEVICE(Device));
  44              		.loc 1 138 3 view .LVU3
 139:../Drivers/STM32F4xx_HAL_Driver/Src/stm32f4xx_ll_fmc.c ****   assert_param(IS_FMC_NORSRAM_BANK(Init->NSBank));
  45              		.loc 1 139 3 view .LVU4
 140:../Drivers/STM32F4xx_HAL_Driver/Src/stm32f4xx_ll_fmc.c ****   assert_param(IS_FMC_MUX(Init->DataAddressMux));
  46              		.loc 1 140 3 view .LVU5
 141:../Drivers/STM32F4xx_HAL_Driver/Src/stm32f4xx_ll_fmc.c ****   assert_param(IS_FMC_MEMORY(Init->MemoryType));
  47              		.loc 1 141 3 view .LVU6
 142:../Drivers/STM32F4xx_HAL_Driver/Src/stm32f4xx_ll_fmc.c ****   assert_param(IS_FMC_NORSRAM_MEMORY_WIDTH(Init->MemoryDataWidth));
  48              		.loc 1 142 3 view .LVU7
 143:../Drivers/STM32F4xx_HAL_Driver/Src/stm32f4xx_ll_fmc.c ****   assert_param(IS_FMC_BURSTMODE(Init->BurstAccessMode));
  49              		.loc 1 143 3 view .LVU8
 144:../Drivers/STM32F4xx_HAL_Driver/Src/stm32f4xx_ll_fmc.c ****   assert_param(IS_FMC_WAIT_POLARITY(Init->WaitSignalPolarity));
  50              		.loc 1 144 3 view .LVU9
 145:../Drivers/STM32F4xx_HAL_Driver/Src/stm32f4xx_ll_fmc.c **** #if defined(STM32F427xx) || defined(STM32F437xx) || defined(STM32F429xx) || defined(STM32F439xx)
 146:../Drivers/STM32F4xx_HAL_Driver/Src/stm32f4xx_ll_fmc.c ****   assert_param(IS_FMC_WRAP_MODE(Init->WrapMode));
  51              		.loc 1 146 3 view .LVU10
 147:../Drivers/STM32F4xx_HAL_Driver/Src/stm32f4xx_ll_fmc.c **** #endif /* STM32F427xx || STM32F437xx || STM32F429xx || STM32F439xx */
 148:../Drivers/STM32F4xx_HAL_Driver/Src/stm32f4xx_ll_fmc.c ****   assert_param(IS_FMC_WAIT_SIGNAL_ACTIVE(Init->WaitSignalActive));
  52              		.loc 1 148 3 view .LVU11
 149:../Drivers/STM32F4xx_HAL_Driver/Src/stm32f4xx_ll_fmc.c ****   assert_param(IS_FMC_WRITE_OPERATION(Init->WriteOperation));
  53              		.loc 1 149 3 view .LVU12
 150:../Drivers/STM32F4xx_HAL_Driver/Src/stm32f4xx_ll_fmc.c ****   assert_param(IS_FMC_WAITE_SIGNAL(Init->WaitSignal));
  54              		.loc 1 150 3 view .LVU13
 151:../Drivers/STM32F4xx_HAL_Driver/Src/stm32f4xx_ll_fmc.c ****   assert_param(IS_FMC_EXTENDED_MODE(Init->ExtendedMode));
  55              		.loc 1 151 3 view .LVU14
 152:../Drivers/STM32F4xx_HAL_Driver/Src/stm32f4xx_ll_fmc.c ****   assert_param(IS_FMC_ASYNWAIT(Init->AsynchronousWait));
  56              		.loc 1 152 3 view .LVU15
 153:../Drivers/STM32F4xx_HAL_Driver/Src/stm32f4xx_ll_fmc.c ****   assert_param(IS_FMC_WRITE_BURST(Init->WriteBurst));
  57              		.loc 1 153 3 view .LVU16
 154:../Drivers/STM32F4xx_HAL_Driver/Src/stm32f4xx_ll_fmc.c ****   assert_param(IS_FMC_CONTINOUS_CLOCK(Init->ContinuousClock));
  58              		.loc 1 154 3 view .LVU17
 155:../Drivers/STM32F4xx_HAL_Driver/Src/stm32f4xx_ll_fmc.c ****   assert_param(IS_FMC_PAGESIZE(Init->PageSize));
  59              		.loc 1 155 3 view .LVU18
 156:../Drivers/STM32F4xx_HAL_Driver/Src/stm32f4xx_ll_fmc.c **** #if defined (STM32F446xx) || defined(STM32F469xx) || defined(STM32F479xx)
 157:../Drivers/STM32F4xx_HAL_Driver/Src/stm32f4xx_ll_fmc.c ****   assert_param(IS_FMC_WRITE_FIFO(Init->WriteFifo));
 158:../Drivers/STM32F4xx_HAL_Driver/Src/stm32f4xx_ll_fmc.c **** #endif /* STM32F446xx || STM32F469xx || STM32F479xx */
 159:../Drivers/STM32F4xx_HAL_Driver/Src/stm32f4xx_ll_fmc.c **** 
 160:../Drivers/STM32F4xx_HAL_Driver/Src/stm32f4xx_ll_fmc.c ****   /* Get the BTCR register value */
 161:../Drivers/STM32F4xx_HAL_Driver/Src/stm32f4xx_ll_fmc.c ****   tmpr = Device->BTCR[Init->NSBank];
  60              		.loc 1 161 3 view .LVU19
  61              		.loc 1 161 27 is_stmt 0 view .LVU20
  62 0002 0A68     		ldr	r2, [r1]
  63              		.loc 1 161 8 view .LVU21
  64 0004 50F82230 		ldr	r3, [r0, r2, lsl #2]
  65              	.LVL2:
 162:../Drivers/STM32F4xx_HAL_Driver/Src/stm32f4xx_ll_fmc.c **** 
 163:../Drivers/STM32F4xx_HAL_Driver/Src/stm32f4xx_ll_fmc.c **** #if defined(STM32F427xx) || defined(STM32F437xx) || defined(STM32F429xx) || defined(STM32F439xx)
 164:../Drivers/STM32F4xx_HAL_Driver/Src/stm32f4xx_ll_fmc.c ****   /* Clear MBKEN, MUXEN, MTYP, MWID, FACCEN, BURSTEN, WAITPOL, WRAPMOD, WAITCFG, WREN,
ARM GAS  /tmp/cc2u48vv.s 			page 5


 165:../Drivers/STM32F4xx_HAL_Driver/Src/stm32f4xx_ll_fmc.c ****            WAITEN, EXTMOD, ASYNCWAIT, CPSIZE, CBURSTRW and CCLKEN bits */
 166:../Drivers/STM32F4xx_HAL_Driver/Src/stm32f4xx_ll_fmc.c ****   tmpr &= ((uint32_t)~(FMC_BCR1_MBKEN     | FMC_BCR1_MUXEN    | FMC_BCR1_MTYP     | \
  66              		.loc 1 166 3 is_stmt 1 view .LVU22
  67              		.loc 1 166 8 is_stmt 0 view .LVU23
  68 0008 194D     		ldr	r5, .L7
  69 000a 1D40     		ands	r5, r5, r3
  70              	.LVL3:
 167:../Drivers/STM32F4xx_HAL_Driver/Src/stm32f4xx_ll_fmc.c ****                        FMC_BCR1_MWID      | FMC_BCR1_FACCEN   | FMC_BCR1_BURSTEN  | \
 168:../Drivers/STM32F4xx_HAL_Driver/Src/stm32f4xx_ll_fmc.c ****                        FMC_BCR1_WAITPOL   | FMC_BCR1_WRAPMOD  | FMC_BCR1_WAITCFG  | \
 169:../Drivers/STM32F4xx_HAL_Driver/Src/stm32f4xx_ll_fmc.c ****                        FMC_BCR1_WREN      | FMC_BCR1_WAITEN   | FMC_BCR1_EXTMOD   | \
 170:../Drivers/STM32F4xx_HAL_Driver/Src/stm32f4xx_ll_fmc.c ****                        FMC_BCR1_ASYNCWAIT | FMC_BCR1_CPSIZE   | FMC_BCR1_CBURSTRW | \
 171:../Drivers/STM32F4xx_HAL_Driver/Src/stm32f4xx_ll_fmc.c ****                        FMC_BCR1_CCLKEN));
 172:../Drivers/STM32F4xx_HAL_Driver/Src/stm32f4xx_ll_fmc.c ****   
 173:../Drivers/STM32F4xx_HAL_Driver/Src/stm32f4xx_ll_fmc.c ****   /* Set NORSRAM device control parameters */
 174:../Drivers/STM32F4xx_HAL_Driver/Src/stm32f4xx_ll_fmc.c ****   tmpr |= (uint32_t)(Init->DataAddressMux       |\
  71              		.loc 1 174 3 is_stmt 1 view .LVU24
  72              		.loc 1 174 26 is_stmt 0 view .LVU25
  73 000c 4B68     		ldr	r3, [r1, #4]
 175:../Drivers/STM32F4xx_HAL_Driver/Src/stm32f4xx_ll_fmc.c ****                     Init->MemoryType           |\
  74              		.loc 1 175 25 view .LVU26
  75 000e 8C68     		ldr	r4, [r1, #8]
 174:../Drivers/STM32F4xx_HAL_Driver/Src/stm32f4xx_ll_fmc.c ****                     Init->MemoryType           |\
  76              		.loc 1 174 49 view .LVU27
  77 0010 2343     		orrs	r3, r3, r4
  78              		.loc 1 175 48 view .LVU28
  79 0012 CE68     		ldr	r6, [r1, #12]
  80 0014 3343     		orrs	r3, r3, r6
 176:../Drivers/STM32F4xx_HAL_Driver/Src/stm32f4xx_ll_fmc.c ****                     Init->MemoryDataWidth      |\
  81              		.loc 1 176 48 view .LVU29
  82 0016 0E69     		ldr	r6, [r1, #16]
  83 0018 3343     		orrs	r3, r3, r6
 177:../Drivers/STM32F4xx_HAL_Driver/Src/stm32f4xx_ll_fmc.c ****                     Init->BurstAccessMode      |\
  84              		.loc 1 177 48 view .LVU30
  85 001a 4E69     		ldr	r6, [r1, #20]
  86 001c 3343     		orrs	r3, r3, r6
 178:../Drivers/STM32F4xx_HAL_Driver/Src/stm32f4xx_ll_fmc.c ****                     Init->WaitSignalPolarity   |\
  87              		.loc 1 178 48 view .LVU31
  88 001e 8E69     		ldr	r6, [r1, #24]
  89 0020 3343     		orrs	r3, r3, r6
 179:../Drivers/STM32F4xx_HAL_Driver/Src/stm32f4xx_ll_fmc.c ****                     Init->WrapMode             |\
  90              		.loc 1 179 48 view .LVU32
  91 0022 CE69     		ldr	r6, [r1, #28]
  92 0024 3343     		orrs	r3, r3, r6
 180:../Drivers/STM32F4xx_HAL_Driver/Src/stm32f4xx_ll_fmc.c ****                     Init->WaitSignalActive     |\
  93              		.loc 1 180 48 view .LVU33
  94 0026 0E6A     		ldr	r6, [r1, #32]
  95 0028 3343     		orrs	r3, r3, r6
 181:../Drivers/STM32F4xx_HAL_Driver/Src/stm32f4xx_ll_fmc.c ****                     Init->WriteOperation       |\
  96              		.loc 1 181 48 view .LVU34
  97 002a 4E6A     		ldr	r6, [r1, #36]
  98 002c 3343     		orrs	r3, r3, r6
 182:../Drivers/STM32F4xx_HAL_Driver/Src/stm32f4xx_ll_fmc.c ****                     Init->WaitSignal           |\
  99              		.loc 1 182 48 view .LVU35
 100 002e 8E6A     		ldr	r6, [r1, #40]
 101 0030 3343     		orrs	r3, r3, r6
 183:../Drivers/STM32F4xx_HAL_Driver/Src/stm32f4xx_ll_fmc.c ****                     Init->ExtendedMode         |\
 102              		.loc 1 183 48 view .LVU36
ARM GAS  /tmp/cc2u48vv.s 			page 6


 103 0032 CE6A     		ldr	r6, [r1, #44]
 104 0034 3343     		orrs	r3, r3, r6
 184:../Drivers/STM32F4xx_HAL_Driver/Src/stm32f4xx_ll_fmc.c ****                     Init->AsynchronousWait     |\
 105              		.loc 1 184 48 view .LVU37
 106 0036 CE6B     		ldr	r6, [r1, #60]
 107 0038 3343     		orrs	r3, r3, r6
 185:../Drivers/STM32F4xx_HAL_Driver/Src/stm32f4xx_ll_fmc.c ****                     Init->PageSize             |\
 108              		.loc 1 185 48 view .LVU38
 109 003a 0E6B     		ldr	r6, [r1, #48]
 110 003c 3343     		orrs	r3, r3, r6
 186:../Drivers/STM32F4xx_HAL_Driver/Src/stm32f4xx_ll_fmc.c ****                     Init->WriteBurst           |\
 111              		.loc 1 186 48 view .LVU39
 112 003e 4E6B     		ldr	r6, [r1, #52]
 113 0040 3343     		orrs	r3, r3, r6
 174:../Drivers/STM32F4xx_HAL_Driver/Src/stm32f4xx_ll_fmc.c ****                     Init->MemoryType           |\
 114              		.loc 1 174 8 view .LVU40
 115 0042 2B43     		orrs	r3, r3, r5
 116              	.LVL4:
 187:../Drivers/STM32F4xx_HAL_Driver/Src/stm32f4xx_ll_fmc.c ****                     Init->ContinuousClock);
 188:../Drivers/STM32F4xx_HAL_Driver/Src/stm32f4xx_ll_fmc.c **** #else /* defined(STM32F446xx) || defined(STM32F469xx) || defined(STM32F479xx) */
 189:../Drivers/STM32F4xx_HAL_Driver/Src/stm32f4xx_ll_fmc.c ****   /* Clear MBKEN, MUXEN, MTYP, MWID, FACCEN, BURSTEN, WAITPOL, CPSIZE, WAITCFG, WREN,
 190:../Drivers/STM32F4xx_HAL_Driver/Src/stm32f4xx_ll_fmc.c ****            WAITEN, EXTMOD, ASYNCWAIT, CBURSTRW, CCLKEN and WFDIS bits */
 191:../Drivers/STM32F4xx_HAL_Driver/Src/stm32f4xx_ll_fmc.c ****   tmpr &= ((uint32_t)~(FMC_BCR1_MBKEN     | FMC_BCR1_MUXEN    | FMC_BCR1_MTYP     | \
 192:../Drivers/STM32F4xx_HAL_Driver/Src/stm32f4xx_ll_fmc.c ****                        FMC_BCR1_MWID      | FMC_BCR1_FACCEN   | FMC_BCR1_BURSTEN  | \
 193:../Drivers/STM32F4xx_HAL_Driver/Src/stm32f4xx_ll_fmc.c ****                        FMC_BCR1_WAITPOL   | FMC_BCR1_WAITCFG  | FMC_BCR1_CPSIZE   | \
 194:../Drivers/STM32F4xx_HAL_Driver/Src/stm32f4xx_ll_fmc.c ****                        FMC_BCR1_WREN      | FMC_BCR1_WAITEN   | FMC_BCR1_EXTMOD   | \
 195:../Drivers/STM32F4xx_HAL_Driver/Src/stm32f4xx_ll_fmc.c ****                        FMC_BCR1_ASYNCWAIT | FMC_BCR1_CBURSTRW | FMC_BCR1_CCLKEN   | \
 196:../Drivers/STM32F4xx_HAL_Driver/Src/stm32f4xx_ll_fmc.c ****                        FMC_BCR1_WFDIS));
 197:../Drivers/STM32F4xx_HAL_Driver/Src/stm32f4xx_ll_fmc.c ****   
 198:../Drivers/STM32F4xx_HAL_Driver/Src/stm32f4xx_ll_fmc.c ****   /* Set NORSRAM device control parameters */
 199:../Drivers/STM32F4xx_HAL_Driver/Src/stm32f4xx_ll_fmc.c ****   tmpr |= (uint32_t)(Init->DataAddressMux       |\
 200:../Drivers/STM32F4xx_HAL_Driver/Src/stm32f4xx_ll_fmc.c ****                     Init->MemoryType           |\
 201:../Drivers/STM32F4xx_HAL_Driver/Src/stm32f4xx_ll_fmc.c ****                     Init->MemoryDataWidth      |\
 202:../Drivers/STM32F4xx_HAL_Driver/Src/stm32f4xx_ll_fmc.c ****                     Init->BurstAccessMode      |\
 203:../Drivers/STM32F4xx_HAL_Driver/Src/stm32f4xx_ll_fmc.c ****                     Init->WaitSignalPolarity   |\
 204:../Drivers/STM32F4xx_HAL_Driver/Src/stm32f4xx_ll_fmc.c ****                     Init->WaitSignalActive     |\
 205:../Drivers/STM32F4xx_HAL_Driver/Src/stm32f4xx_ll_fmc.c ****                     Init->WriteOperation       |\
 206:../Drivers/STM32F4xx_HAL_Driver/Src/stm32f4xx_ll_fmc.c ****                     Init->WaitSignal           |\
 207:../Drivers/STM32F4xx_HAL_Driver/Src/stm32f4xx_ll_fmc.c ****                     Init->ExtendedMode         |\
 208:../Drivers/STM32F4xx_HAL_Driver/Src/stm32f4xx_ll_fmc.c ****                     Init->AsynchronousWait     |\
 209:../Drivers/STM32F4xx_HAL_Driver/Src/stm32f4xx_ll_fmc.c ****                     Init->WriteBurst           |\
 210:../Drivers/STM32F4xx_HAL_Driver/Src/stm32f4xx_ll_fmc.c ****                     Init->ContinuousClock      |\
 211:../Drivers/STM32F4xx_HAL_Driver/Src/stm32f4xx_ll_fmc.c ****                     Init->PageSize             |\
 212:../Drivers/STM32F4xx_HAL_Driver/Src/stm32f4xx_ll_fmc.c ****                     Init->WriteFifo);
 213:../Drivers/STM32F4xx_HAL_Driver/Src/stm32f4xx_ll_fmc.c **** #endif /*  defined(STM32F427xx) || defined(STM32F437xx) || defined(STM32F429xx) || defined(STM32F43
 214:../Drivers/STM32F4xx_HAL_Driver/Src/stm32f4xx_ll_fmc.c ****                     
 215:../Drivers/STM32F4xx_HAL_Driver/Src/stm32f4xx_ll_fmc.c ****   if(Init->MemoryType == FMC_MEMORY_TYPE_NOR)
 117              		.loc 1 215 3 is_stmt 1 view .LVU41
 118              		.loc 1 215 5 is_stmt 0 view .LVU42
 119 0044 082C     		cmp	r4, #8
 120 0046 08D0     		beq	.L5
 121              	.L2:
 216:../Drivers/STM32F4xx_HAL_Driver/Src/stm32f4xx_ll_fmc.c ****   {
 217:../Drivers/STM32F4xx_HAL_Driver/Src/stm32f4xx_ll_fmc.c ****     tmpr |= (uint32_t)FMC_NORSRAM_FLASH_ACCESS_ENABLE;
 218:../Drivers/STM32F4xx_HAL_Driver/Src/stm32f4xx_ll_fmc.c ****   }
 219:../Drivers/STM32F4xx_HAL_Driver/Src/stm32f4xx_ll_fmc.c ****   
 220:../Drivers/STM32F4xx_HAL_Driver/Src/stm32f4xx_ll_fmc.c ****   Device->BTCR[Init->NSBank] = tmpr;
ARM GAS  /tmp/cc2u48vv.s 			page 7


 122              		.loc 1 220 3 is_stmt 1 view .LVU43
 123              		.loc 1 220 30 is_stmt 0 view .LVU44
 124 0048 40F82230 		str	r3, [r0, r2, lsl #2]
 221:../Drivers/STM32F4xx_HAL_Driver/Src/stm32f4xx_ll_fmc.c **** 
 222:../Drivers/STM32F4xx_HAL_Driver/Src/stm32f4xx_ll_fmc.c ****   /* Configure synchronous mode when Continuous clock is enabled for bank2..4 */
 223:../Drivers/STM32F4xx_HAL_Driver/Src/stm32f4xx_ll_fmc.c ****   if((Init->ContinuousClock == FMC_CONTINUOUS_CLOCK_SYNC_ASYNC) && (Init->NSBank != FMC_NORSRAM_BAN
 125              		.loc 1 223 3 is_stmt 1 view .LVU45
 126              		.loc 1 223 11 is_stmt 0 view .LVU46
 127 004c 4B6B     		ldr	r3, [r1, #52]
 128              	.LVL5:
 129              		.loc 1 223 5 view .LVU47
 130 004e B3F5801F 		cmp	r3, #1048576
 131 0052 05D0     		beq	.L6
 132              	.LVL6:
 133              	.L3:
 224:../Drivers/STM32F4xx_HAL_Driver/Src/stm32f4xx_ll_fmc.c ****   { 
 225:../Drivers/STM32F4xx_HAL_Driver/Src/stm32f4xx_ll_fmc.c ****     Device->BTCR[FMC_NORSRAM_BANK1] |= (uint32_t)(Init->ContinuousClock);
 226:../Drivers/STM32F4xx_HAL_Driver/Src/stm32f4xx_ll_fmc.c ****   }
 227:../Drivers/STM32F4xx_HAL_Driver/Src/stm32f4xx_ll_fmc.c **** 
 228:../Drivers/STM32F4xx_HAL_Driver/Src/stm32f4xx_ll_fmc.c **** #if defined(STM32F446xx) || defined(STM32F469xx) || defined(STM32F479xx)
 229:../Drivers/STM32F4xx_HAL_Driver/Src/stm32f4xx_ll_fmc.c ****   if(Init->NSBank != FMC_NORSRAM_BANK1)
 230:../Drivers/STM32F4xx_HAL_Driver/Src/stm32f4xx_ll_fmc.c ****   {
 231:../Drivers/STM32F4xx_HAL_Driver/Src/stm32f4xx_ll_fmc.c ****     Device->BTCR[FMC_NORSRAM_BANK1] |= (uint32_t)(Init->WriteFifo);              
 232:../Drivers/STM32F4xx_HAL_Driver/Src/stm32f4xx_ll_fmc.c ****   }
 233:../Drivers/STM32F4xx_HAL_Driver/Src/stm32f4xx_ll_fmc.c **** #endif /* STM32F446xx || STM32F469xx || STM32F479xx */
 234:../Drivers/STM32F4xx_HAL_Driver/Src/stm32f4xx_ll_fmc.c ****   
 235:../Drivers/STM32F4xx_HAL_Driver/Src/stm32f4xx_ll_fmc.c ****   return HAL_OK;
 134              		.loc 1 235 3 is_stmt 1 view .LVU48
 236:../Drivers/STM32F4xx_HAL_Driver/Src/stm32f4xx_ll_fmc.c **** }
 135              		.loc 1 236 1 is_stmt 0 view .LVU49
 136 0054 0020     		movs	r0, #0
 137              	.LVL7:
 138              		.loc 1 236 1 view .LVU50
 139 0056 70BC     		pop	{r4, r5, r6}
 140              	.LCFI1:
 141              		.cfi_remember_state
 142              		.cfi_restore 6
 143              		.cfi_restore 5
 144              		.cfi_restore 4
 145              		.cfi_def_cfa_offset 0
 146 0058 7047     		bx	lr
 147              	.LVL8:
 148              	.L5:
 149              	.LCFI2:
 150              		.cfi_restore_state
 217:../Drivers/STM32F4xx_HAL_Driver/Src/stm32f4xx_ll_fmc.c ****   }
 151              		.loc 1 217 5 is_stmt 1 view .LVU51
 217:../Drivers/STM32F4xx_HAL_Driver/Src/stm32f4xx_ll_fmc.c ****   }
 152              		.loc 1 217 10 is_stmt 0 view .LVU52
 153 005a 43F04003 		orr	r3, r3, #64
 154              	.LVL9:
 217:../Drivers/STM32F4xx_HAL_Driver/Src/stm32f4xx_ll_fmc.c ****   }
 155              		.loc 1 217 10 view .LVU53
 156 005e F3E7     		b	.L2
 157              	.LVL10:
 158              	.L6:
 223:../Drivers/STM32F4xx_HAL_Driver/Src/stm32f4xx_ll_fmc.c ****   { 
ARM GAS  /tmp/cc2u48vv.s 			page 8


 159              		.loc 1 223 73 discriminator 1 view .LVU54
 160 0060 0A68     		ldr	r2, [r1]
 161              	.LVL11:
 223:../Drivers/STM32F4xx_HAL_Driver/Src/stm32f4xx_ll_fmc.c ****   { 
 162              		.loc 1 223 65 discriminator 1 view .LVU55
 163 0062 002A     		cmp	r2, #0
 164 0064 F6D0     		beq	.L3
 225:../Drivers/STM32F4xx_HAL_Driver/Src/stm32f4xx_ll_fmc.c ****   }
 165              		.loc 1 225 5 is_stmt 1 view .LVU56
 225:../Drivers/STM32F4xx_HAL_Driver/Src/stm32f4xx_ll_fmc.c ****   }
 166              		.loc 1 225 37 is_stmt 0 view .LVU57
 167 0066 0268     		ldr	r2, [r0]
 168 0068 1343     		orrs	r3, r3, r2
 169 006a 0360     		str	r3, [r0]
 170 006c F2E7     		b	.L3
 171              	.L8:
 172 006e 00BF     		.align	2
 173              	.L7:
 174 0070 8000E0FF 		.word	-2097024
 175              		.cfi_endproc
 176              	.LFE130:
 178              		.section	.text.FMC_NORSRAM_DeInit,"ax",%progbits
 179              		.align	1
 180              		.global	FMC_NORSRAM_DeInit
 181              		.syntax unified
 182              		.thumb
 183              		.thumb_func
 184              		.fpu fpv4-sp-d16
 186              	FMC_NORSRAM_DeInit:
 187              	.LVL12:
 188              	.LFB131:
 237:../Drivers/STM32F4xx_HAL_Driver/Src/stm32f4xx_ll_fmc.c **** 
 238:../Drivers/STM32F4xx_HAL_Driver/Src/stm32f4xx_ll_fmc.c **** /**
 239:../Drivers/STM32F4xx_HAL_Driver/Src/stm32f4xx_ll_fmc.c ****   * @brief  DeInitialize the FMC_NORSRAM peripheral 
 240:../Drivers/STM32F4xx_HAL_Driver/Src/stm32f4xx_ll_fmc.c ****   * @param  Device Pointer to NORSRAM device instance
 241:../Drivers/STM32F4xx_HAL_Driver/Src/stm32f4xx_ll_fmc.c ****   * @param  ExDevice Pointer to NORSRAM extended mode device instance  
 242:../Drivers/STM32F4xx_HAL_Driver/Src/stm32f4xx_ll_fmc.c ****   * @param  Bank NORSRAM bank number  
 243:../Drivers/STM32F4xx_HAL_Driver/Src/stm32f4xx_ll_fmc.c ****   * @retval HAL status
 244:../Drivers/STM32F4xx_HAL_Driver/Src/stm32f4xx_ll_fmc.c ****   */
 245:../Drivers/STM32F4xx_HAL_Driver/Src/stm32f4xx_ll_fmc.c **** HAL_StatusTypeDef FMC_NORSRAM_DeInit(FMC_NORSRAM_TypeDef *Device, FMC_NORSRAM_EXTENDED_TypeDef *ExD
 246:../Drivers/STM32F4xx_HAL_Driver/Src/stm32f4xx_ll_fmc.c **** {
 189              		.loc 1 246 1 is_stmt 1 view -0
 190              		.cfi_startproc
 191              		@ args = 0, pretend = 0, frame = 0
 192              		@ frame_needed = 0, uses_anonymous_args = 0
 193              		@ link register save eliminated.
 247:../Drivers/STM32F4xx_HAL_Driver/Src/stm32f4xx_ll_fmc.c ****   /* Check the parameters */
 248:../Drivers/STM32F4xx_HAL_Driver/Src/stm32f4xx_ll_fmc.c ****   assert_param(IS_FMC_NORSRAM_DEVICE(Device));
 194              		.loc 1 248 3 view .LVU59
 249:../Drivers/STM32F4xx_HAL_Driver/Src/stm32f4xx_ll_fmc.c ****   assert_param(IS_FMC_NORSRAM_EXTENDED_DEVICE(ExDevice));
 195              		.loc 1 249 3 view .LVU60
 250:../Drivers/STM32F4xx_HAL_Driver/Src/stm32f4xx_ll_fmc.c ****   assert_param(IS_FMC_NORSRAM_BANK(Bank));
 196              		.loc 1 250 3 view .LVU61
 251:../Drivers/STM32F4xx_HAL_Driver/Src/stm32f4xx_ll_fmc.c ****   
 252:../Drivers/STM32F4xx_HAL_Driver/Src/stm32f4xx_ll_fmc.c ****   /* Disable the FMC_NORSRAM device */
 253:../Drivers/STM32F4xx_HAL_Driver/Src/stm32f4xx_ll_fmc.c ****   __FMC_NORSRAM_DISABLE(Device, Bank);
 197              		.loc 1 253 3 view .LVU62
ARM GAS  /tmp/cc2u48vv.s 			page 9


 198 0000 50F82230 		ldr	r3, [r0, r2, lsl #2]
 199 0004 23F00103 		bic	r3, r3, #1
 200 0008 40F82230 		str	r3, [r0, r2, lsl #2]
 254:../Drivers/STM32F4xx_HAL_Driver/Src/stm32f4xx_ll_fmc.c ****   
 255:../Drivers/STM32F4xx_HAL_Driver/Src/stm32f4xx_ll_fmc.c ****   /* De-initialize the FMC_NORSRAM device */
 256:../Drivers/STM32F4xx_HAL_Driver/Src/stm32f4xx_ll_fmc.c ****   /* FMC_NORSRAM_BANK1 */
 257:../Drivers/STM32F4xx_HAL_Driver/Src/stm32f4xx_ll_fmc.c ****   if(Bank == FMC_NORSRAM_BANK1)
 201              		.loc 1 257 3 view .LVU63
 202              		.loc 1 257 5 is_stmt 0 view .LVU64
 203 000c 6AB9     		cbnz	r2, .L10
 258:../Drivers/STM32F4xx_HAL_Driver/Src/stm32f4xx_ll_fmc.c ****   {
 259:../Drivers/STM32F4xx_HAL_Driver/Src/stm32f4xx_ll_fmc.c ****     Device->BTCR[Bank] = 0x000030DBU;
 204              		.loc 1 259 5 is_stmt 1 view .LVU65
 205              		.loc 1 259 24 is_stmt 0 view .LVU66
 206 000e 43F2DB03 		movw	r3, #12507
 207 0012 40F82230 		str	r3, [r0, r2, lsl #2]
 208              	.L11:
 260:../Drivers/STM32F4xx_HAL_Driver/Src/stm32f4xx_ll_fmc.c ****   }
 261:../Drivers/STM32F4xx_HAL_Driver/Src/stm32f4xx_ll_fmc.c ****   /* FMC_NORSRAM_BANK2, FMC_NORSRAM_BANK3 or FMC_NORSRAM_BANK4 */
 262:../Drivers/STM32F4xx_HAL_Driver/Src/stm32f4xx_ll_fmc.c ****   else
 263:../Drivers/STM32F4xx_HAL_Driver/Src/stm32f4xx_ll_fmc.c ****   {   
 264:../Drivers/STM32F4xx_HAL_Driver/Src/stm32f4xx_ll_fmc.c ****     Device->BTCR[Bank] = 0x000030D2U;
 265:../Drivers/STM32F4xx_HAL_Driver/Src/stm32f4xx_ll_fmc.c ****   }
 266:../Drivers/STM32F4xx_HAL_Driver/Src/stm32f4xx_ll_fmc.c ****   
 267:../Drivers/STM32F4xx_HAL_Driver/Src/stm32f4xx_ll_fmc.c ****   Device->BTCR[Bank + 1U] = 0x0FFFFFFFU;
 209              		.loc 1 267 3 is_stmt 1 view .LVU67
 210              		.loc 1 267 21 is_stmt 0 view .LVU68
 211 0016 02F1010C 		add	ip, r2, #1
 212              		.loc 1 267 27 view .LVU69
 213 001a 6FF07043 		mvn	r3, #-268435456
 214 001e 40F82C30 		str	r3, [r0, ip, lsl #2]
 268:../Drivers/STM32F4xx_HAL_Driver/Src/stm32f4xx_ll_fmc.c ****   ExDevice->BWTR[Bank]    = 0x0FFFFFFFU;
 215              		.loc 1 268 3 is_stmt 1 view .LVU70
 216              		.loc 1 268 27 is_stmt 0 view .LVU71
 217 0022 41F82230 		str	r3, [r1, r2, lsl #2]
 269:../Drivers/STM32F4xx_HAL_Driver/Src/stm32f4xx_ll_fmc.c ****    
 270:../Drivers/STM32F4xx_HAL_Driver/Src/stm32f4xx_ll_fmc.c ****   return HAL_OK;
 218              		.loc 1 270 3 is_stmt 1 view .LVU72
 271:../Drivers/STM32F4xx_HAL_Driver/Src/stm32f4xx_ll_fmc.c **** }
 219              		.loc 1 271 1 is_stmt 0 view .LVU73
 220 0026 0020     		movs	r0, #0
 221              	.LVL13:
 222              		.loc 1 271 1 view .LVU74
 223 0028 7047     		bx	lr
 224              	.LVL14:
 225              	.L10:
 264:../Drivers/STM32F4xx_HAL_Driver/Src/stm32f4xx_ll_fmc.c ****   }
 226              		.loc 1 264 5 is_stmt 1 view .LVU75
 264:../Drivers/STM32F4xx_HAL_Driver/Src/stm32f4xx_ll_fmc.c ****   }
 227              		.loc 1 264 24 is_stmt 0 view .LVU76
 228 002a 43F2D203 		movw	r3, #12498
 229 002e 40F82230 		str	r3, [r0, r2, lsl #2]
 230 0032 F0E7     		b	.L11
 231              		.cfi_endproc
 232              	.LFE131:
 234              		.section	.text.FMC_NORSRAM_Timing_Init,"ax",%progbits
 235              		.align	1
ARM GAS  /tmp/cc2u48vv.s 			page 10


 236              		.global	FMC_NORSRAM_Timing_Init
 237              		.syntax unified
 238              		.thumb
 239              		.thumb_func
 240              		.fpu fpv4-sp-d16
 242              	FMC_NORSRAM_Timing_Init:
 243              	.LVL15:
 244              	.LFB132:
 272:../Drivers/STM32F4xx_HAL_Driver/Src/stm32f4xx_ll_fmc.c **** 
 273:../Drivers/STM32F4xx_HAL_Driver/Src/stm32f4xx_ll_fmc.c **** /**
 274:../Drivers/STM32F4xx_HAL_Driver/Src/stm32f4xx_ll_fmc.c ****   * @brief  Initialize the FMC_NORSRAM Timing according to the specified
 275:../Drivers/STM32F4xx_HAL_Driver/Src/stm32f4xx_ll_fmc.c ****   *         parameters in the FMC_NORSRAM_TimingTypeDef
 276:../Drivers/STM32F4xx_HAL_Driver/Src/stm32f4xx_ll_fmc.c ****   * @param  Device Pointer to NORSRAM device instance
 277:../Drivers/STM32F4xx_HAL_Driver/Src/stm32f4xx_ll_fmc.c ****   * @param  Timing Pointer to NORSRAM Timing structure
 278:../Drivers/STM32F4xx_HAL_Driver/Src/stm32f4xx_ll_fmc.c ****   * @param  Bank NORSRAM bank number  
 279:../Drivers/STM32F4xx_HAL_Driver/Src/stm32f4xx_ll_fmc.c ****   * @retval HAL status
 280:../Drivers/STM32F4xx_HAL_Driver/Src/stm32f4xx_ll_fmc.c ****   */
 281:../Drivers/STM32F4xx_HAL_Driver/Src/stm32f4xx_ll_fmc.c **** HAL_StatusTypeDef FMC_NORSRAM_Timing_Init(FMC_NORSRAM_TypeDef *Device, FMC_NORSRAM_TimingTypeDef *T
 282:../Drivers/STM32F4xx_HAL_Driver/Src/stm32f4xx_ll_fmc.c **** {
 245              		.loc 1 282 1 is_stmt 1 view -0
 246              		.cfi_startproc
 247              		@ args = 0, pretend = 0, frame = 0
 248              		@ frame_needed = 0, uses_anonymous_args = 0
 249              		.loc 1 282 1 is_stmt 0 view .LVU78
 250 0000 10B5     		push	{r4, lr}
 251              	.LCFI3:
 252              		.cfi_def_cfa_offset 8
 253              		.cfi_offset 4, -8
 254              		.cfi_offset 14, -4
 283:../Drivers/STM32F4xx_HAL_Driver/Src/stm32f4xx_ll_fmc.c ****   uint32_t tmpr = 0U;
 255              		.loc 1 283 3 is_stmt 1 view .LVU79
 256              	.LVL16:
 284:../Drivers/STM32F4xx_HAL_Driver/Src/stm32f4xx_ll_fmc.c ****   
 285:../Drivers/STM32F4xx_HAL_Driver/Src/stm32f4xx_ll_fmc.c ****   /* Check the parameters */
 286:../Drivers/STM32F4xx_HAL_Driver/Src/stm32f4xx_ll_fmc.c ****   assert_param(IS_FMC_NORSRAM_DEVICE(Device));
 257              		.loc 1 286 3 view .LVU80
 287:../Drivers/STM32F4xx_HAL_Driver/Src/stm32f4xx_ll_fmc.c ****   assert_param(IS_FMC_ADDRESS_SETUP_TIME(Timing->AddressSetupTime));
 258              		.loc 1 287 3 view .LVU81
 288:../Drivers/STM32F4xx_HAL_Driver/Src/stm32f4xx_ll_fmc.c ****   assert_param(IS_FMC_ADDRESS_HOLD_TIME(Timing->AddressHoldTime));
 259              		.loc 1 288 3 view .LVU82
 289:../Drivers/STM32F4xx_HAL_Driver/Src/stm32f4xx_ll_fmc.c ****   assert_param(IS_FMC_DATASETUP_TIME(Timing->DataSetupTime));
 260              		.loc 1 289 3 view .LVU83
 290:../Drivers/STM32F4xx_HAL_Driver/Src/stm32f4xx_ll_fmc.c ****   assert_param(IS_FMC_TURNAROUND_TIME(Timing->BusTurnAroundDuration));
 261              		.loc 1 290 3 view .LVU84
 291:../Drivers/STM32F4xx_HAL_Driver/Src/stm32f4xx_ll_fmc.c ****   assert_param(IS_FMC_CLK_DIV(Timing->CLKDivision));
 262              		.loc 1 291 3 view .LVU85
 292:../Drivers/STM32F4xx_HAL_Driver/Src/stm32f4xx_ll_fmc.c ****   assert_param(IS_FMC_DATA_LATENCY(Timing->DataLatency));
 263              		.loc 1 292 3 view .LVU86
 293:../Drivers/STM32F4xx_HAL_Driver/Src/stm32f4xx_ll_fmc.c ****   assert_param(IS_FMC_ACCESS_MODE(Timing->AccessMode));
 264              		.loc 1 293 3 view .LVU87
 294:../Drivers/STM32F4xx_HAL_Driver/Src/stm32f4xx_ll_fmc.c ****   assert_param(IS_FMC_NORSRAM_BANK(Bank));
 265              		.loc 1 294 3 view .LVU88
 295:../Drivers/STM32F4xx_HAL_Driver/Src/stm32f4xx_ll_fmc.c ****   
 296:../Drivers/STM32F4xx_HAL_Driver/Src/stm32f4xx_ll_fmc.c ****   /* Get the BTCR register value */
 297:../Drivers/STM32F4xx_HAL_Driver/Src/stm32f4xx_ll_fmc.c ****   tmpr = Device->BTCR[Bank + 1U];
 266              		.loc 1 297 3 view .LVU89
 267              		.loc 1 297 28 is_stmt 0 view .LVU90
ARM GAS  /tmp/cc2u48vv.s 			page 11


 268 0002 0132     		adds	r2, r2, #1
 269              	.LVL17:
 270              		.loc 1 297 8 view .LVU91
 271 0004 50F82230 		ldr	r3, [r0, r2, lsl #2]
 272              	.LVL18:
 298:../Drivers/STM32F4xx_HAL_Driver/Src/stm32f4xx_ll_fmc.c **** 
 299:../Drivers/STM32F4xx_HAL_Driver/Src/stm32f4xx_ll_fmc.c ****   /* Clear ADDSET, ADDHLD, DATAST, BUSTURN, CLKDIV, DATLAT and ACCMOD bits */
 300:../Drivers/STM32F4xx_HAL_Driver/Src/stm32f4xx_ll_fmc.c ****   tmpr &= ((uint32_t)~(FMC_BTR1_ADDSET  | FMC_BTR1_ADDHLD | FMC_BTR1_DATAST | \
 273              		.loc 1 300 3 is_stmt 1 view .LVU92
 274              		.loc 1 300 8 is_stmt 0 view .LVU93
 275 0008 03F0404C 		and	ip, r3, #-1073741824
 276              	.LVL19:
 301:../Drivers/STM32F4xx_HAL_Driver/Src/stm32f4xx_ll_fmc.c ****                        FMC_BTR1_BUSTURN | FMC_BTR1_CLKDIV | FMC_BTR1_DATLAT | \
 302:../Drivers/STM32F4xx_HAL_Driver/Src/stm32f4xx_ll_fmc.c ****                        FMC_BTR1_ACCMOD));
 303:../Drivers/STM32F4xx_HAL_Driver/Src/stm32f4xx_ll_fmc.c ****   
 304:../Drivers/STM32F4xx_HAL_Driver/Src/stm32f4xx_ll_fmc.c ****   /* Set FMC_NORSRAM device timing parameters */  
 305:../Drivers/STM32F4xx_HAL_Driver/Src/stm32f4xx_ll_fmc.c ****   tmpr |= (uint32_t)(Timing->AddressSetupTime                   |\
 277              		.loc 1 305 3 is_stmt 1 view .LVU94
 278              		.loc 1 305 28 is_stmt 0 view .LVU95
 279 000c 0B68     		ldr	r3, [r1]
 280              		.loc 1 305 65 view .LVU96
 281 000e 4C68     		ldr	r4, [r1, #4]
 282 0010 43EA0413 		orr	r3, r3, r4, lsl #4
 306:../Drivers/STM32F4xx_HAL_Driver/Src/stm32f4xx_ll_fmc.c ****                     ((Timing->AddressHoldTime) << 4U)           |\
 283              		.loc 1 306 65 view .LVU97
 284 0014 8C68     		ldr	r4, [r1, #8]
 285 0016 43EA0423 		orr	r3, r3, r4, lsl #8
 307:../Drivers/STM32F4xx_HAL_Driver/Src/stm32f4xx_ll_fmc.c ****                     ((Timing->DataSetupTime) << 8U)             |\
 286              		.loc 1 307 65 view .LVU98
 287 001a CC68     		ldr	r4, [r1, #12]
 288 001c 43EA0443 		orr	r3, r3, r4, lsl #16
 308:../Drivers/STM32F4xx_HAL_Driver/Src/stm32f4xx_ll_fmc.c ****                     ((Timing->BusTurnAroundDuration) << 16U)    |\
 309:../Drivers/STM32F4xx_HAL_Driver/Src/stm32f4xx_ll_fmc.c ****                     (((Timing->CLKDivision) - 1U) << 20U)         |\
 289              		.loc 1 309 45 view .LVU99
 290 0020 0C69     		ldr	r4, [r1, #16]
 291 0022 04F1FF3E 		add	lr, r4, #-1
 308:../Drivers/STM32F4xx_HAL_Driver/Src/stm32f4xx_ll_fmc.c ****                     ((Timing->BusTurnAroundDuration) << 16U)    |\
 292              		.loc 1 308 65 view .LVU100
 293 0026 43EA0E53 		orr	r3, r3, lr, lsl #20
 310:../Drivers/STM32F4xx_HAL_Driver/Src/stm32f4xx_ll_fmc.c ****                     (((Timing->DataLatency) - 2U) << 24U)         |\
 294              		.loc 1 310 45 view .LVU101
 295 002a 4C69     		ldr	r4, [r1, #20]
 296 002c A4F1020E 		sub	lr, r4, #2
 309:../Drivers/STM32F4xx_HAL_Driver/Src/stm32f4xx_ll_fmc.c ****                     (((Timing->DataLatency) - 2U) << 24U)         |\
 297              		.loc 1 309 67 view .LVU102
 298 0030 43EA0E63 		orr	r3, r3, lr, lsl #24
 305:../Drivers/STM32F4xx_HAL_Driver/Src/stm32f4xx_ll_fmc.c ****                     ((Timing->AddressHoldTime) << 4U)           |\
 299              		.loc 1 305 11 view .LVU103
 300 0034 8C69     		ldr	r4, [r1, #24]
 301 0036 2343     		orrs	r3, r3, r4
 305:../Drivers/STM32F4xx_HAL_Driver/Src/stm32f4xx_ll_fmc.c ****                     ((Timing->AddressHoldTime) << 4U)           |\
 302              		.loc 1 305 8 view .LVU104
 303 0038 43EA0C03 		orr	r3, r3, ip
 304              	.LVL20:
 311:../Drivers/STM32F4xx_HAL_Driver/Src/stm32f4xx_ll_fmc.c ****                     (Timing->AccessMode));
 312:../Drivers/STM32F4xx_HAL_Driver/Src/stm32f4xx_ll_fmc.c ****   
 313:../Drivers/STM32F4xx_HAL_Driver/Src/stm32f4xx_ll_fmc.c ****   Device->BTCR[Bank + 1U] = tmpr;
ARM GAS  /tmp/cc2u48vv.s 			page 12


 305              		.loc 1 313 3 is_stmt 1 view .LVU105
 306              		.loc 1 313 27 is_stmt 0 view .LVU106
 307 003c 40F82230 		str	r3, [r0, r2, lsl #2]
 314:../Drivers/STM32F4xx_HAL_Driver/Src/stm32f4xx_ll_fmc.c ****   
 315:../Drivers/STM32F4xx_HAL_Driver/Src/stm32f4xx_ll_fmc.c ****   /* Configure Clock division value (in NORSRAM bank 1) when continuous clock is enabled */
 316:../Drivers/STM32F4xx_HAL_Driver/Src/stm32f4xx_ll_fmc.c ****   if(HAL_IS_BIT_SET(Device->BTCR[FMC_NORSRAM_BANK1], FMC_BCR1_CCLKEN))
 308              		.loc 1 316 3 is_stmt 1 view .LVU107
 309              		.loc 1 316 6 is_stmt 0 view .LVU108
 310 0040 0368     		ldr	r3, [r0]
 311              	.LVL21:
 312              		.loc 1 316 5 view .LVU109
 313 0042 13F4801F 		tst	r3, #1048576
 314 0046 07D0     		beq	.L13
 317:../Drivers/STM32F4xx_HAL_Driver/Src/stm32f4xx_ll_fmc.c ****   {
 318:../Drivers/STM32F4xx_HAL_Driver/Src/stm32f4xx_ll_fmc.c ****     tmpr = (uint32_t)(Device->BTCR[FMC_NORSRAM_BANK1 + 1U] & ~(0x0FU << 20U)); 
 315              		.loc 1 318 5 is_stmt 1 view .LVU110
 316              		.loc 1 318 35 is_stmt 0 view .LVU111
 317 0048 4368     		ldr	r3, [r0, #4]
 318              		.loc 1 318 10 view .LVU112
 319 004a 23F47003 		bic	r3, r3, #15728640
 320              	.LVL22:
 319:../Drivers/STM32F4xx_HAL_Driver/Src/stm32f4xx_ll_fmc.c ****     tmpr |= (uint32_t)(((Timing->CLKDivision) - 1U) << 20U);
 321              		.loc 1 319 5 is_stmt 1 view .LVU113
 322              		.loc 1 319 32 is_stmt 0 view .LVU114
 323 004e 0A69     		ldr	r2, [r1, #16]
 324              	.LVL23:
 325              		.loc 1 319 47 view .LVU115
 326 0050 013A     		subs	r2, r2, #1
 327              		.loc 1 319 10 view .LVU116
 328 0052 43EA0253 		orr	r3, r3, r2, lsl #20
 329              	.LVL24:
 320:../Drivers/STM32F4xx_HAL_Driver/Src/stm32f4xx_ll_fmc.c ****     Device->BTCR[FMC_NORSRAM_BANK1 + 1U] = tmpr;
 330              		.loc 1 320 5 is_stmt 1 view .LVU117
 331              		.loc 1 320 42 is_stmt 0 view .LVU118
 332 0056 4360     		str	r3, [r0, #4]
 333              	.LVL25:
 334              	.L13:
 321:../Drivers/STM32F4xx_HAL_Driver/Src/stm32f4xx_ll_fmc.c ****   }  
 322:../Drivers/STM32F4xx_HAL_Driver/Src/stm32f4xx_ll_fmc.c ****   
 323:../Drivers/STM32F4xx_HAL_Driver/Src/stm32f4xx_ll_fmc.c ****   return HAL_OK;   
 335              		.loc 1 323 3 is_stmt 1 view .LVU119
 324:../Drivers/STM32F4xx_HAL_Driver/Src/stm32f4xx_ll_fmc.c **** }
 336              		.loc 1 324 1 is_stmt 0 view .LVU120
 337 0058 0020     		movs	r0, #0
 338              	.LVL26:
 339              		.loc 1 324 1 view .LVU121
 340 005a 10BD     		pop	{r4, pc}
 341              		.cfi_endproc
 342              	.LFE132:
 344              		.section	.text.FMC_NORSRAM_Extended_Timing_Init,"ax",%progbits
 345              		.align	1
 346              		.global	FMC_NORSRAM_Extended_Timing_Init
 347              		.syntax unified
 348              		.thumb
 349              		.thumb_func
 350              		.fpu fpv4-sp-d16
 352              	FMC_NORSRAM_Extended_Timing_Init:
ARM GAS  /tmp/cc2u48vv.s 			page 13


 353              	.LVL27:
 354              	.LFB133:
 325:../Drivers/STM32F4xx_HAL_Driver/Src/stm32f4xx_ll_fmc.c **** 
 326:../Drivers/STM32F4xx_HAL_Driver/Src/stm32f4xx_ll_fmc.c **** /**
 327:../Drivers/STM32F4xx_HAL_Driver/Src/stm32f4xx_ll_fmc.c ****   * @brief  Initialize the FMC_NORSRAM Extended mode Timing according to the specified
 328:../Drivers/STM32F4xx_HAL_Driver/Src/stm32f4xx_ll_fmc.c ****   *         parameters in the FMC_NORSRAM_TimingTypeDef
 329:../Drivers/STM32F4xx_HAL_Driver/Src/stm32f4xx_ll_fmc.c ****   * @param  Device Pointer to NORSRAM device instance
 330:../Drivers/STM32F4xx_HAL_Driver/Src/stm32f4xx_ll_fmc.c ****   * @param  Timing Pointer to NORSRAM Timing structure
 331:../Drivers/STM32F4xx_HAL_Driver/Src/stm32f4xx_ll_fmc.c ****   * @param  Bank NORSRAM bank number  
 332:../Drivers/STM32F4xx_HAL_Driver/Src/stm32f4xx_ll_fmc.c ****   * @retval HAL status
 333:../Drivers/STM32F4xx_HAL_Driver/Src/stm32f4xx_ll_fmc.c ****   */
 334:../Drivers/STM32F4xx_HAL_Driver/Src/stm32f4xx_ll_fmc.c **** HAL_StatusTypeDef  FMC_NORSRAM_Extended_Timing_Init(FMC_NORSRAM_EXTENDED_TypeDef *Device, FMC_NORSR
 335:../Drivers/STM32F4xx_HAL_Driver/Src/stm32f4xx_ll_fmc.c **** {  
 355              		.loc 1 335 1 is_stmt 1 view -0
 356              		.cfi_startproc
 357              		@ args = 0, pretend = 0, frame = 0
 358              		@ frame_needed = 0, uses_anonymous_args = 0
 359              		@ link register save eliminated.
 336:../Drivers/STM32F4xx_HAL_Driver/Src/stm32f4xx_ll_fmc.c ****   uint32_t tmpr = 0U;
 360              		.loc 1 336 3 view .LVU123
 337:../Drivers/STM32F4xx_HAL_Driver/Src/stm32f4xx_ll_fmc.c ****  
 338:../Drivers/STM32F4xx_HAL_Driver/Src/stm32f4xx_ll_fmc.c ****   /* Check the parameters */
 339:../Drivers/STM32F4xx_HAL_Driver/Src/stm32f4xx_ll_fmc.c ****   assert_param(IS_FMC_EXTENDED_MODE(ExtendedMode));
 361              		.loc 1 339 3 view .LVU124
 340:../Drivers/STM32F4xx_HAL_Driver/Src/stm32f4xx_ll_fmc.c ****   
 341:../Drivers/STM32F4xx_HAL_Driver/Src/stm32f4xx_ll_fmc.c ****   /* Set NORSRAM device timing register for write configuration, if extended mode is used */
 342:../Drivers/STM32F4xx_HAL_Driver/Src/stm32f4xx_ll_fmc.c ****   if(ExtendedMode == FMC_EXTENDED_MODE_ENABLE)
 362              		.loc 1 342 3 view .LVU125
 363              		.loc 1 342 5 is_stmt 0 view .LVU126
 364 0000 B3F5804F 		cmp	r3, #16384
 365 0004 05D0     		beq	.L22
 343:../Drivers/STM32F4xx_HAL_Driver/Src/stm32f4xx_ll_fmc.c ****   {
 344:../Drivers/STM32F4xx_HAL_Driver/Src/stm32f4xx_ll_fmc.c ****     /* Check the parameters */
 345:../Drivers/STM32F4xx_HAL_Driver/Src/stm32f4xx_ll_fmc.c ****     assert_param(IS_FMC_NORSRAM_EXTENDED_DEVICE(Device));  
 346:../Drivers/STM32F4xx_HAL_Driver/Src/stm32f4xx_ll_fmc.c ****     assert_param(IS_FMC_ADDRESS_SETUP_TIME(Timing->AddressSetupTime));
 347:../Drivers/STM32F4xx_HAL_Driver/Src/stm32f4xx_ll_fmc.c ****     assert_param(IS_FMC_ADDRESS_HOLD_TIME(Timing->AddressHoldTime));
 348:../Drivers/STM32F4xx_HAL_Driver/Src/stm32f4xx_ll_fmc.c ****     assert_param(IS_FMC_DATASETUP_TIME(Timing->DataSetupTime));
 349:../Drivers/STM32F4xx_HAL_Driver/Src/stm32f4xx_ll_fmc.c ****     assert_param(IS_FMC_TURNAROUND_TIME(Timing->BusTurnAroundDuration));
 350:../Drivers/STM32F4xx_HAL_Driver/Src/stm32f4xx_ll_fmc.c ****     assert_param(IS_FMC_ACCESS_MODE(Timing->AccessMode));
 351:../Drivers/STM32F4xx_HAL_Driver/Src/stm32f4xx_ll_fmc.c ****     assert_param(IS_FMC_NORSRAM_BANK(Bank));  
 352:../Drivers/STM32F4xx_HAL_Driver/Src/stm32f4xx_ll_fmc.c ****     
 353:../Drivers/STM32F4xx_HAL_Driver/Src/stm32f4xx_ll_fmc.c ****     /* Get the BWTR register value */
 354:../Drivers/STM32F4xx_HAL_Driver/Src/stm32f4xx_ll_fmc.c ****     tmpr = Device->BWTR[Bank];
 355:../Drivers/STM32F4xx_HAL_Driver/Src/stm32f4xx_ll_fmc.c **** 
 356:../Drivers/STM32F4xx_HAL_Driver/Src/stm32f4xx_ll_fmc.c ****     /* Clear ADDSET, ADDHLD, DATAST, BUSTURN and ACCMOD bits */
 357:../Drivers/STM32F4xx_HAL_Driver/Src/stm32f4xx_ll_fmc.c ****     tmpr &= ((uint32_t)~(FMC_BWTR1_ADDSET  | FMC_BWTR1_ADDHLD | FMC_BWTR1_DATAST | \
 358:../Drivers/STM32F4xx_HAL_Driver/Src/stm32f4xx_ll_fmc.c ****                          FMC_BWTR1_BUSTURN | FMC_BWTR1_ACCMOD));
 359:../Drivers/STM32F4xx_HAL_Driver/Src/stm32f4xx_ll_fmc.c ****     
 360:../Drivers/STM32F4xx_HAL_Driver/Src/stm32f4xx_ll_fmc.c ****     tmpr |= (uint32_t)(Timing->AddressSetupTime                  |\
 361:../Drivers/STM32F4xx_HAL_Driver/Src/stm32f4xx_ll_fmc.c ****                       ((Timing->AddressHoldTime) << 4U)          |\
 362:../Drivers/STM32F4xx_HAL_Driver/Src/stm32f4xx_ll_fmc.c ****                       ((Timing->DataSetupTime) << 8U)            |\
 363:../Drivers/STM32F4xx_HAL_Driver/Src/stm32f4xx_ll_fmc.c ****                       ((Timing->BusTurnAroundDuration) << 16U)   |\
 364:../Drivers/STM32F4xx_HAL_Driver/Src/stm32f4xx_ll_fmc.c ****                       (Timing->AccessMode));
 365:../Drivers/STM32F4xx_HAL_Driver/Src/stm32f4xx_ll_fmc.c **** 
 366:../Drivers/STM32F4xx_HAL_Driver/Src/stm32f4xx_ll_fmc.c ****     Device->BWTR[Bank] = tmpr;
 367:../Drivers/STM32F4xx_HAL_Driver/Src/stm32f4xx_ll_fmc.c ****   }
 368:../Drivers/STM32F4xx_HAL_Driver/Src/stm32f4xx_ll_fmc.c ****   else
ARM GAS  /tmp/cc2u48vv.s 			page 14


 369:../Drivers/STM32F4xx_HAL_Driver/Src/stm32f4xx_ll_fmc.c ****   {
 370:../Drivers/STM32F4xx_HAL_Driver/Src/stm32f4xx_ll_fmc.c ****     Device->BWTR[Bank] = 0x0FFFFFFFU;
 366              		.loc 1 370 5 is_stmt 1 view .LVU127
 367              		.loc 1 370 24 is_stmt 0 view .LVU128
 368 0006 6FF07043 		mvn	r3, #-268435456
 369              	.LVL28:
 370              		.loc 1 370 24 view .LVU129
 371 000a 40F82230 		str	r3, [r0, r2, lsl #2]
 371:../Drivers/STM32F4xx_HAL_Driver/Src/stm32f4xx_ll_fmc.c ****   }   
 372:../Drivers/STM32F4xx_HAL_Driver/Src/stm32f4xx_ll_fmc.c ****   
 373:../Drivers/STM32F4xx_HAL_Driver/Src/stm32f4xx_ll_fmc.c ****   return HAL_OK;  
 372              		.loc 1 373 3 is_stmt 1 view .LVU130
 374:../Drivers/STM32F4xx_HAL_Driver/Src/stm32f4xx_ll_fmc.c **** }
 373              		.loc 1 374 1 is_stmt 0 view .LVU131
 374 000e 0020     		movs	r0, #0
 375              	.LVL29:
 376              		.loc 1 374 1 view .LVU132
 377 0010 7047     		bx	lr
 378              	.LVL30:
 379              	.L22:
 335:../Drivers/STM32F4xx_HAL_Driver/Src/stm32f4xx_ll_fmc.c ****   uint32_t tmpr = 0U;
 380              		.loc 1 335 1 view .LVU133
 381 0012 30B4     		push	{r4, r5}
 382              	.LCFI4:
 383              		.cfi_def_cfa_offset 8
 384              		.cfi_offset 4, -8
 385              		.cfi_offset 5, -4
 345:../Drivers/STM32F4xx_HAL_Driver/Src/stm32f4xx_ll_fmc.c ****     assert_param(IS_FMC_ADDRESS_SETUP_TIME(Timing->AddressSetupTime));
 386              		.loc 1 345 5 is_stmt 1 view .LVU134
 346:../Drivers/STM32F4xx_HAL_Driver/Src/stm32f4xx_ll_fmc.c ****     assert_param(IS_FMC_ADDRESS_HOLD_TIME(Timing->AddressHoldTime));
 387              		.loc 1 346 5 view .LVU135
 347:../Drivers/STM32F4xx_HAL_Driver/Src/stm32f4xx_ll_fmc.c ****     assert_param(IS_FMC_DATASETUP_TIME(Timing->DataSetupTime));
 388              		.loc 1 347 5 view .LVU136
 348:../Drivers/STM32F4xx_HAL_Driver/Src/stm32f4xx_ll_fmc.c ****     assert_param(IS_FMC_TURNAROUND_TIME(Timing->BusTurnAroundDuration));
 389              		.loc 1 348 5 view .LVU137
 349:../Drivers/STM32F4xx_HAL_Driver/Src/stm32f4xx_ll_fmc.c ****     assert_param(IS_FMC_ACCESS_MODE(Timing->AccessMode));
 390              		.loc 1 349 5 view .LVU138
 350:../Drivers/STM32F4xx_HAL_Driver/Src/stm32f4xx_ll_fmc.c ****     assert_param(IS_FMC_NORSRAM_BANK(Bank));  
 391              		.loc 1 350 5 view .LVU139
 351:../Drivers/STM32F4xx_HAL_Driver/Src/stm32f4xx_ll_fmc.c ****     
 392              		.loc 1 351 5 view .LVU140
 354:../Drivers/STM32F4xx_HAL_Driver/Src/stm32f4xx_ll_fmc.c **** 
 393              		.loc 1 354 5 view .LVU141
 354:../Drivers/STM32F4xx_HAL_Driver/Src/stm32f4xx_ll_fmc.c **** 
 394              		.loc 1 354 10 is_stmt 0 view .LVU142
 395 0014 50F82230 		ldr	r3, [r0, r2, lsl #2]
 396              	.LVL31:
 357:../Drivers/STM32F4xx_HAL_Driver/Src/stm32f4xx_ll_fmc.c ****                          FMC_BWTR1_BUSTURN | FMC_BWTR1_ACCMOD));
 397              		.loc 1 357 5 is_stmt 1 view .LVU143
 357:../Drivers/STM32F4xx_HAL_Driver/Src/stm32f4xx_ll_fmc.c ****                          FMC_BWTR1_BUSTURN | FMC_BWTR1_ACCMOD));
 398              		.loc 1 357 10 is_stmt 0 view .LVU144
 399 0018 094C     		ldr	r4, .L23
 400 001a 1C40     		ands	r4, r4, r3
 401              	.LVL32:
 360:../Drivers/STM32F4xx_HAL_Driver/Src/stm32f4xx_ll_fmc.c ****                       ((Timing->AddressHoldTime) << 4U)          |\
 402              		.loc 1 360 5 is_stmt 1 view .LVU145
 360:../Drivers/STM32F4xx_HAL_Driver/Src/stm32f4xx_ll_fmc.c ****                       ((Timing->AddressHoldTime) << 4U)          |\
ARM GAS  /tmp/cc2u48vv.s 			page 15


 403              		.loc 1 360 30 is_stmt 0 view .LVU146
 404 001c 0B68     		ldr	r3, [r1]
 360:../Drivers/STM32F4xx_HAL_Driver/Src/stm32f4xx_ll_fmc.c ****                       ((Timing->AddressHoldTime) << 4U)          |\
 405              		.loc 1 360 66 view .LVU147
 406 001e 4D68     		ldr	r5, [r1, #4]
 407 0020 43EA0513 		orr	r3, r3, r5, lsl #4
 361:../Drivers/STM32F4xx_HAL_Driver/Src/stm32f4xx_ll_fmc.c ****                       ((Timing->DataSetupTime) << 8U)            |\
 408              		.loc 1 361 66 view .LVU148
 409 0024 8D68     		ldr	r5, [r1, #8]
 410 0026 43EA0523 		orr	r3, r3, r5, lsl #8
 362:../Drivers/STM32F4xx_HAL_Driver/Src/stm32f4xx_ll_fmc.c ****                       ((Timing->BusTurnAroundDuration) << 16U)   |\
 411              		.loc 1 362 66 view .LVU149
 412 002a CD68     		ldr	r5, [r1, #12]
 413 002c 43EA0543 		orr	r3, r3, r5, lsl #16
 364:../Drivers/STM32F4xx_HAL_Driver/Src/stm32f4xx_ll_fmc.c **** 
 414              		.loc 1 364 30 view .LVU150
 415 0030 8969     		ldr	r1, [r1, #24]
 416              	.LVL33:
 363:../Drivers/STM32F4xx_HAL_Driver/Src/stm32f4xx_ll_fmc.c ****                       (Timing->AccessMode));
 417              		.loc 1 363 66 view .LVU151
 418 0032 0B43     		orrs	r3, r3, r1
 360:../Drivers/STM32F4xx_HAL_Driver/Src/stm32f4xx_ll_fmc.c ****                       ((Timing->AddressHoldTime) << 4U)          |\
 419              		.loc 1 360 10 view .LVU152
 420 0034 2343     		orrs	r3, r3, r4
 421              	.LVL34:
 366:../Drivers/STM32F4xx_HAL_Driver/Src/stm32f4xx_ll_fmc.c ****   }
 422              		.loc 1 366 5 is_stmt 1 view .LVU153
 366:../Drivers/STM32F4xx_HAL_Driver/Src/stm32f4xx_ll_fmc.c ****   }
 423              		.loc 1 366 24 is_stmt 0 view .LVU154
 424 0036 40F82230 		str	r3, [r0, r2, lsl #2]
 373:../Drivers/STM32F4xx_HAL_Driver/Src/stm32f4xx_ll_fmc.c **** }
 425              		.loc 1 373 3 is_stmt 1 view .LVU155
 426              		.loc 1 374 1 is_stmt 0 view .LVU156
 427 003a 0020     		movs	r0, #0
 428              	.LVL35:
 429              		.loc 1 374 1 view .LVU157
 430 003c 30BC     		pop	{r4, r5}
 431              	.LCFI5:
 432              		.cfi_restore 5
 433              		.cfi_restore 4
 434              		.cfi_def_cfa_offset 0
 435 003e 7047     		bx	lr
 436              	.L24:
 437              		.align	2
 438              	.L23:
 439 0040 0000F0CF 		.word	-806354944
 440              		.cfi_endproc
 441              	.LFE133:
 443              		.section	.text.FMC_NORSRAM_WriteOperation_Enable,"ax",%progbits
 444              		.align	1
 445              		.global	FMC_NORSRAM_WriteOperation_Enable
 446              		.syntax unified
 447              		.thumb
 448              		.thumb_func
 449              		.fpu fpv4-sp-d16
 451              	FMC_NORSRAM_WriteOperation_Enable:
 452              	.LVL36:
ARM GAS  /tmp/cc2u48vv.s 			page 16


 453              	.LFB134:
 375:../Drivers/STM32F4xx_HAL_Driver/Src/stm32f4xx_ll_fmc.c **** /**
 376:../Drivers/STM32F4xx_HAL_Driver/Src/stm32f4xx_ll_fmc.c ****   * @}
 377:../Drivers/STM32F4xx_HAL_Driver/Src/stm32f4xx_ll_fmc.c ****   */
 378:../Drivers/STM32F4xx_HAL_Driver/Src/stm32f4xx_ll_fmc.c ****   
 379:../Drivers/STM32F4xx_HAL_Driver/Src/stm32f4xx_ll_fmc.c **** /** @addtogroup FMC_LL_NORSRAM_Private_Functions_Group2
 380:../Drivers/STM32F4xx_HAL_Driver/Src/stm32f4xx_ll_fmc.c ****  *  @brief   management functions 
 381:../Drivers/STM32F4xx_HAL_Driver/Src/stm32f4xx_ll_fmc.c ****  *
 382:../Drivers/STM32F4xx_HAL_Driver/Src/stm32f4xx_ll_fmc.c **** @verbatim   
 383:../Drivers/STM32F4xx_HAL_Driver/Src/stm32f4xx_ll_fmc.c ****   ==============================================================================
 384:../Drivers/STM32F4xx_HAL_Driver/Src/stm32f4xx_ll_fmc.c ****                       ##### FMC_NORSRAM Control functions #####
 385:../Drivers/STM32F4xx_HAL_Driver/Src/stm32f4xx_ll_fmc.c ****   ==============================================================================  
 386:../Drivers/STM32F4xx_HAL_Driver/Src/stm32f4xx_ll_fmc.c ****   [..]
 387:../Drivers/STM32F4xx_HAL_Driver/Src/stm32f4xx_ll_fmc.c ****     This subsection provides a set of functions allowing to control dynamically
 388:../Drivers/STM32F4xx_HAL_Driver/Src/stm32f4xx_ll_fmc.c ****     the FMC NORSRAM interface.
 389:../Drivers/STM32F4xx_HAL_Driver/Src/stm32f4xx_ll_fmc.c **** 
 390:../Drivers/STM32F4xx_HAL_Driver/Src/stm32f4xx_ll_fmc.c **** @endverbatim
 391:../Drivers/STM32F4xx_HAL_Driver/Src/stm32f4xx_ll_fmc.c ****   * @{
 392:../Drivers/STM32F4xx_HAL_Driver/Src/stm32f4xx_ll_fmc.c ****   */
 393:../Drivers/STM32F4xx_HAL_Driver/Src/stm32f4xx_ll_fmc.c **** /**
 394:../Drivers/STM32F4xx_HAL_Driver/Src/stm32f4xx_ll_fmc.c ****   * @brief  Enables dynamically FMC_NORSRAM write operation.
 395:../Drivers/STM32F4xx_HAL_Driver/Src/stm32f4xx_ll_fmc.c ****   * @param  Device Pointer to NORSRAM device instance
 396:../Drivers/STM32F4xx_HAL_Driver/Src/stm32f4xx_ll_fmc.c ****   * @param  Bank NORSRAM bank number   
 397:../Drivers/STM32F4xx_HAL_Driver/Src/stm32f4xx_ll_fmc.c ****   * @retval HAL status
 398:../Drivers/STM32F4xx_HAL_Driver/Src/stm32f4xx_ll_fmc.c ****   */
 399:../Drivers/STM32F4xx_HAL_Driver/Src/stm32f4xx_ll_fmc.c **** HAL_StatusTypeDef FMC_NORSRAM_WriteOperation_Enable(FMC_NORSRAM_TypeDef *Device, uint32_t Bank)
 400:../Drivers/STM32F4xx_HAL_Driver/Src/stm32f4xx_ll_fmc.c **** {
 454              		.loc 1 400 1 is_stmt 1 view -0
 455              		.cfi_startproc
 456              		@ args = 0, pretend = 0, frame = 0
 457              		@ frame_needed = 0, uses_anonymous_args = 0
 458              		@ link register save eliminated.
 401:../Drivers/STM32F4xx_HAL_Driver/Src/stm32f4xx_ll_fmc.c ****   /* Check the parameters */
 402:../Drivers/STM32F4xx_HAL_Driver/Src/stm32f4xx_ll_fmc.c ****   assert_param(IS_FMC_NORSRAM_DEVICE(Device));
 459              		.loc 1 402 3 view .LVU159
 403:../Drivers/STM32F4xx_HAL_Driver/Src/stm32f4xx_ll_fmc.c ****   assert_param(IS_FMC_NORSRAM_BANK(Bank));
 460              		.loc 1 403 3 view .LVU160
 404:../Drivers/STM32F4xx_HAL_Driver/Src/stm32f4xx_ll_fmc.c ****   
 405:../Drivers/STM32F4xx_HAL_Driver/Src/stm32f4xx_ll_fmc.c ****   /* Enable write operation */
 406:../Drivers/STM32F4xx_HAL_Driver/Src/stm32f4xx_ll_fmc.c ****   Device->BTCR[Bank] |= FMC_WRITE_OPERATION_ENABLE; 
 461              		.loc 1 406 3 view .LVU161
 462              		.loc 1 406 22 is_stmt 0 view .LVU162
 463 0000 50F82130 		ldr	r3, [r0, r1, lsl #2]
 464 0004 43F48053 		orr	r3, r3, #4096
 465 0008 40F82130 		str	r3, [r0, r1, lsl #2]
 407:../Drivers/STM32F4xx_HAL_Driver/Src/stm32f4xx_ll_fmc.c **** 
 408:../Drivers/STM32F4xx_HAL_Driver/Src/stm32f4xx_ll_fmc.c ****   return HAL_OK;  
 466              		.loc 1 408 3 is_stmt 1 view .LVU163
 409:../Drivers/STM32F4xx_HAL_Driver/Src/stm32f4xx_ll_fmc.c **** }
 467              		.loc 1 409 1 is_stmt 0 view .LVU164
 468 000c 0020     		movs	r0, #0
 469              	.LVL37:
 470              		.loc 1 409 1 view .LVU165
 471 000e 7047     		bx	lr
 472              		.cfi_endproc
 473              	.LFE134:
 475              		.section	.text.FMC_NORSRAM_WriteOperation_Disable,"ax",%progbits
ARM GAS  /tmp/cc2u48vv.s 			page 17


 476              		.align	1
 477              		.global	FMC_NORSRAM_WriteOperation_Disable
 478              		.syntax unified
 479              		.thumb
 480              		.thumb_func
 481              		.fpu fpv4-sp-d16
 483              	FMC_NORSRAM_WriteOperation_Disable:
 484              	.LVL38:
 485              	.LFB135:
 410:../Drivers/STM32F4xx_HAL_Driver/Src/stm32f4xx_ll_fmc.c **** 
 411:../Drivers/STM32F4xx_HAL_Driver/Src/stm32f4xx_ll_fmc.c **** /**
 412:../Drivers/STM32F4xx_HAL_Driver/Src/stm32f4xx_ll_fmc.c ****   * @brief  Disables dynamically FMC_NORSRAM write operation.
 413:../Drivers/STM32F4xx_HAL_Driver/Src/stm32f4xx_ll_fmc.c ****   * @param  Device Pointer to NORSRAM device instance
 414:../Drivers/STM32F4xx_HAL_Driver/Src/stm32f4xx_ll_fmc.c ****   * @param  Bank NORSRAM bank number   
 415:../Drivers/STM32F4xx_HAL_Driver/Src/stm32f4xx_ll_fmc.c ****   * @retval HAL status
 416:../Drivers/STM32F4xx_HAL_Driver/Src/stm32f4xx_ll_fmc.c ****   */
 417:../Drivers/STM32F4xx_HAL_Driver/Src/stm32f4xx_ll_fmc.c **** HAL_StatusTypeDef FMC_NORSRAM_WriteOperation_Disable(FMC_NORSRAM_TypeDef *Device, uint32_t Bank)
 418:../Drivers/STM32F4xx_HAL_Driver/Src/stm32f4xx_ll_fmc.c **** { 
 486              		.loc 1 418 1 is_stmt 1 view -0
 487              		.cfi_startproc
 488              		@ args = 0, pretend = 0, frame = 0
 489              		@ frame_needed = 0, uses_anonymous_args = 0
 490              		@ link register save eliminated.
 419:../Drivers/STM32F4xx_HAL_Driver/Src/stm32f4xx_ll_fmc.c ****   /* Check the parameters */
 420:../Drivers/STM32F4xx_HAL_Driver/Src/stm32f4xx_ll_fmc.c ****   assert_param(IS_FMC_NORSRAM_DEVICE(Device));
 491              		.loc 1 420 3 view .LVU167
 421:../Drivers/STM32F4xx_HAL_Driver/Src/stm32f4xx_ll_fmc.c ****   assert_param(IS_FMC_NORSRAM_BANK(Bank));
 492              		.loc 1 421 3 view .LVU168
 422:../Drivers/STM32F4xx_HAL_Driver/Src/stm32f4xx_ll_fmc.c ****     
 423:../Drivers/STM32F4xx_HAL_Driver/Src/stm32f4xx_ll_fmc.c ****   /* Disable write operation */
 424:../Drivers/STM32F4xx_HAL_Driver/Src/stm32f4xx_ll_fmc.c ****   Device->BTCR[Bank] &= ~FMC_WRITE_OPERATION_ENABLE; 
 493              		.loc 1 424 3 view .LVU169
 494              		.loc 1 424 22 is_stmt 0 view .LVU170
 495 0000 50F82130 		ldr	r3, [r0, r1, lsl #2]
 496 0004 23F48053 		bic	r3, r3, #4096
 497 0008 40F82130 		str	r3, [r0, r1, lsl #2]
 425:../Drivers/STM32F4xx_HAL_Driver/Src/stm32f4xx_ll_fmc.c **** 
 426:../Drivers/STM32F4xx_HAL_Driver/Src/stm32f4xx_ll_fmc.c ****   return HAL_OK;  
 498              		.loc 1 426 3 is_stmt 1 view .LVU171
 427:../Drivers/STM32F4xx_HAL_Driver/Src/stm32f4xx_ll_fmc.c **** }
 499              		.loc 1 427 1 is_stmt 0 view .LVU172
 500 000c 0020     		movs	r0, #0
 501              	.LVL39:
 502              		.loc 1 427 1 view .LVU173
 503 000e 7047     		bx	lr
 504              		.cfi_endproc
 505              	.LFE135:
 507              		.section	.text.FMC_NAND_Init,"ax",%progbits
 508              		.align	1
 509              		.global	FMC_NAND_Init
 510              		.syntax unified
 511              		.thumb
 512              		.thumb_func
 513              		.fpu fpv4-sp-d16
 515              	FMC_NAND_Init:
 516              	.LVL40:
 517              	.LFB136:
ARM GAS  /tmp/cc2u48vv.s 			page 18


 428:../Drivers/STM32F4xx_HAL_Driver/Src/stm32f4xx_ll_fmc.c **** 
 429:../Drivers/STM32F4xx_HAL_Driver/Src/stm32f4xx_ll_fmc.c **** /**
 430:../Drivers/STM32F4xx_HAL_Driver/Src/stm32f4xx_ll_fmc.c ****   * @}
 431:../Drivers/STM32F4xx_HAL_Driver/Src/stm32f4xx_ll_fmc.c ****   */
 432:../Drivers/STM32F4xx_HAL_Driver/Src/stm32f4xx_ll_fmc.c **** 
 433:../Drivers/STM32F4xx_HAL_Driver/Src/stm32f4xx_ll_fmc.c **** /**
 434:../Drivers/STM32F4xx_HAL_Driver/Src/stm32f4xx_ll_fmc.c ****   * @}
 435:../Drivers/STM32F4xx_HAL_Driver/Src/stm32f4xx_ll_fmc.c ****   */
 436:../Drivers/STM32F4xx_HAL_Driver/Src/stm32f4xx_ll_fmc.c **** 
 437:../Drivers/STM32F4xx_HAL_Driver/Src/stm32f4xx_ll_fmc.c **** /** @addtogroup FMC_LL_NAND
 438:../Drivers/STM32F4xx_HAL_Driver/Src/stm32f4xx_ll_fmc.c ****   * @brief    NAND Controller functions 
 439:../Drivers/STM32F4xx_HAL_Driver/Src/stm32f4xx_ll_fmc.c ****   *
 440:../Drivers/STM32F4xx_HAL_Driver/Src/stm32f4xx_ll_fmc.c ****   @verbatim 
 441:../Drivers/STM32F4xx_HAL_Driver/Src/stm32f4xx_ll_fmc.c ****   ==============================================================================
 442:../Drivers/STM32F4xx_HAL_Driver/Src/stm32f4xx_ll_fmc.c ****                     ##### How to use NAND device driver #####
 443:../Drivers/STM32F4xx_HAL_Driver/Src/stm32f4xx_ll_fmc.c ****   ==============================================================================
 444:../Drivers/STM32F4xx_HAL_Driver/Src/stm32f4xx_ll_fmc.c ****   [..]
 445:../Drivers/STM32F4xx_HAL_Driver/Src/stm32f4xx_ll_fmc.c ****     This driver contains a set of APIs to interface with the FMC NAND banks in order
 446:../Drivers/STM32F4xx_HAL_Driver/Src/stm32f4xx_ll_fmc.c ****     to run the NAND external devices.
 447:../Drivers/STM32F4xx_HAL_Driver/Src/stm32f4xx_ll_fmc.c ****   
 448:../Drivers/STM32F4xx_HAL_Driver/Src/stm32f4xx_ll_fmc.c ****     (+) FMC NAND bank reset using the function FMC_NAND_DeInit() 
 449:../Drivers/STM32F4xx_HAL_Driver/Src/stm32f4xx_ll_fmc.c ****     (+) FMC NAND bank control configuration using the function FMC_NAND_Init()
 450:../Drivers/STM32F4xx_HAL_Driver/Src/stm32f4xx_ll_fmc.c ****     (+) FMC NAND bank common space timing configuration using the function 
 451:../Drivers/STM32F4xx_HAL_Driver/Src/stm32f4xx_ll_fmc.c ****         FMC_NAND_CommonSpace_Timing_Init()
 452:../Drivers/STM32F4xx_HAL_Driver/Src/stm32f4xx_ll_fmc.c ****     (+) FMC NAND bank attribute space timing configuration using the function 
 453:../Drivers/STM32F4xx_HAL_Driver/Src/stm32f4xx_ll_fmc.c ****         FMC_NAND_AttributeSpace_Timing_Init()
 454:../Drivers/STM32F4xx_HAL_Driver/Src/stm32f4xx_ll_fmc.c ****     (+) FMC NAND bank enable/disable ECC correction feature using the functions
 455:../Drivers/STM32F4xx_HAL_Driver/Src/stm32f4xx_ll_fmc.c ****         FMC_NAND_ECC_Enable()/FMC_NAND_ECC_Disable()
 456:../Drivers/STM32F4xx_HAL_Driver/Src/stm32f4xx_ll_fmc.c ****     (+) FMC NAND bank get ECC correction code using the function FMC_NAND_GetECC()    
 457:../Drivers/STM32F4xx_HAL_Driver/Src/stm32f4xx_ll_fmc.c **** 
 458:../Drivers/STM32F4xx_HAL_Driver/Src/stm32f4xx_ll_fmc.c **** @endverbatim
 459:../Drivers/STM32F4xx_HAL_Driver/Src/stm32f4xx_ll_fmc.c ****   * @{
 460:../Drivers/STM32F4xx_HAL_Driver/Src/stm32f4xx_ll_fmc.c ****   */
 461:../Drivers/STM32F4xx_HAL_Driver/Src/stm32f4xx_ll_fmc.c ****  
 462:../Drivers/STM32F4xx_HAL_Driver/Src/stm32f4xx_ll_fmc.c **** #if defined(STM32F446xx) || defined(STM32F469xx) || defined(STM32F479xx)
 463:../Drivers/STM32F4xx_HAL_Driver/Src/stm32f4xx_ll_fmc.c **** /** @defgroup HAL_FMC_NAND_Group1 Initialization/de-initialization functions 
 464:../Drivers/STM32F4xx_HAL_Driver/Src/stm32f4xx_ll_fmc.c ****  *  @brief    Initialization and Configuration functions 
 465:../Drivers/STM32F4xx_HAL_Driver/Src/stm32f4xx_ll_fmc.c ****  *
 466:../Drivers/STM32F4xx_HAL_Driver/Src/stm32f4xx_ll_fmc.c **** @verbatim    
 467:../Drivers/STM32F4xx_HAL_Driver/Src/stm32f4xx_ll_fmc.c ****   ==============================================================================
 468:../Drivers/STM32F4xx_HAL_Driver/Src/stm32f4xx_ll_fmc.c ****               ##### Initialization and de_initialization functions #####
 469:../Drivers/STM32F4xx_HAL_Driver/Src/stm32f4xx_ll_fmc.c ****   ==============================================================================
 470:../Drivers/STM32F4xx_HAL_Driver/Src/stm32f4xx_ll_fmc.c ****   [..]  
 471:../Drivers/STM32F4xx_HAL_Driver/Src/stm32f4xx_ll_fmc.c ****     This section provides functions allowing to:
 472:../Drivers/STM32F4xx_HAL_Driver/Src/stm32f4xx_ll_fmc.c ****     (+) Initialize and configure the FMC NAND interface
 473:../Drivers/STM32F4xx_HAL_Driver/Src/stm32f4xx_ll_fmc.c ****     (+) De-initialize the FMC NAND interface 
 474:../Drivers/STM32F4xx_HAL_Driver/Src/stm32f4xx_ll_fmc.c ****     (+) Configure the FMC clock and associated GPIOs
 475:../Drivers/STM32F4xx_HAL_Driver/Src/stm32f4xx_ll_fmc.c ****         
 476:../Drivers/STM32F4xx_HAL_Driver/Src/stm32f4xx_ll_fmc.c **** @endverbatim
 477:../Drivers/STM32F4xx_HAL_Driver/Src/stm32f4xx_ll_fmc.c ****   * @{
 478:../Drivers/STM32F4xx_HAL_Driver/Src/stm32f4xx_ll_fmc.c ****   */
 479:../Drivers/STM32F4xx_HAL_Driver/Src/stm32f4xx_ll_fmc.c **** 
 480:../Drivers/STM32F4xx_HAL_Driver/Src/stm32f4xx_ll_fmc.c **** /**
 481:../Drivers/STM32F4xx_HAL_Driver/Src/stm32f4xx_ll_fmc.c ****   * @brief  Initializes the FMC_NAND device according to the specified
 482:../Drivers/STM32F4xx_HAL_Driver/Src/stm32f4xx_ll_fmc.c ****   *         control parameters in the FMC_NAND_HandleTypeDef
 483:../Drivers/STM32F4xx_HAL_Driver/Src/stm32f4xx_ll_fmc.c ****   * @param  Device Pointer to NAND device instance
 484:../Drivers/STM32F4xx_HAL_Driver/Src/stm32f4xx_ll_fmc.c ****   * @param  Init Pointer to NAND Initialization structure
ARM GAS  /tmp/cc2u48vv.s 			page 19


 485:../Drivers/STM32F4xx_HAL_Driver/Src/stm32f4xx_ll_fmc.c ****   * @retval HAL status
 486:../Drivers/STM32F4xx_HAL_Driver/Src/stm32f4xx_ll_fmc.c ****   */
 487:../Drivers/STM32F4xx_HAL_Driver/Src/stm32f4xx_ll_fmc.c **** HAL_StatusTypeDef FMC_NAND_Init(FMC_NAND_TypeDef *Device, FMC_NAND_InitTypeDef *Init)
 488:../Drivers/STM32F4xx_HAL_Driver/Src/stm32f4xx_ll_fmc.c **** {
 489:../Drivers/STM32F4xx_HAL_Driver/Src/stm32f4xx_ll_fmc.c ****   uint32_t tmpr  = 0U; 
 490:../Drivers/STM32F4xx_HAL_Driver/Src/stm32f4xx_ll_fmc.c ****     
 491:../Drivers/STM32F4xx_HAL_Driver/Src/stm32f4xx_ll_fmc.c ****   /* Check the parameters */
 492:../Drivers/STM32F4xx_HAL_Driver/Src/stm32f4xx_ll_fmc.c ****   assert_param(IS_FMC_NAND_DEVICE(Device));
 493:../Drivers/STM32F4xx_HAL_Driver/Src/stm32f4xx_ll_fmc.c ****   assert_param(IS_FMC_NAND_BANK(Init->NandBank));
 494:../Drivers/STM32F4xx_HAL_Driver/Src/stm32f4xx_ll_fmc.c ****   assert_param(IS_FMC_WAIT_FEATURE(Init->Waitfeature));
 495:../Drivers/STM32F4xx_HAL_Driver/Src/stm32f4xx_ll_fmc.c ****   assert_param(IS_FMC_NAND_MEMORY_WIDTH(Init->MemoryDataWidth));
 496:../Drivers/STM32F4xx_HAL_Driver/Src/stm32f4xx_ll_fmc.c ****   assert_param(IS_FMC_ECC_STATE(Init->EccComputation));
 497:../Drivers/STM32F4xx_HAL_Driver/Src/stm32f4xx_ll_fmc.c ****   assert_param(IS_FMC_ECCPAGE_SIZE(Init->ECCPageSize));
 498:../Drivers/STM32F4xx_HAL_Driver/Src/stm32f4xx_ll_fmc.c ****   assert_param(IS_FMC_TCLR_TIME(Init->TCLRSetupTime));
 499:../Drivers/STM32F4xx_HAL_Driver/Src/stm32f4xx_ll_fmc.c ****   assert_param(IS_FMC_TAR_TIME(Init->TARSetupTime));   
 500:../Drivers/STM32F4xx_HAL_Driver/Src/stm32f4xx_ll_fmc.c ****   
 501:../Drivers/STM32F4xx_HAL_Driver/Src/stm32f4xx_ll_fmc.c ****   /* Get the NAND bank register value */
 502:../Drivers/STM32F4xx_HAL_Driver/Src/stm32f4xx_ll_fmc.c ****   tmpr = Device->PCR;
 503:../Drivers/STM32F4xx_HAL_Driver/Src/stm32f4xx_ll_fmc.c ****   
 504:../Drivers/STM32F4xx_HAL_Driver/Src/stm32f4xx_ll_fmc.c ****   /* Clear PWAITEN, PBKEN, PTYP, PWID, ECCEN, TCLR, TAR and ECCPS bits */
 505:../Drivers/STM32F4xx_HAL_Driver/Src/stm32f4xx_ll_fmc.c ****   tmpr &= ((uint32_t)~(FMC_PCR_PWAITEN  | FMC_PCR_PBKEN | FMC_PCR_PTYP | \
 506:../Drivers/STM32F4xx_HAL_Driver/Src/stm32f4xx_ll_fmc.c ****                        FMC_PCR_PWID | FMC_PCR_ECCEN | FMC_PCR_TCLR | \
 507:../Drivers/STM32F4xx_HAL_Driver/Src/stm32f4xx_ll_fmc.c ****                        FMC_PCR_TAR | FMC_PCR_ECCPS));  
 508:../Drivers/STM32F4xx_HAL_Driver/Src/stm32f4xx_ll_fmc.c ****   
 509:../Drivers/STM32F4xx_HAL_Driver/Src/stm32f4xx_ll_fmc.c ****   /* Set NAND device control parameters */
 510:../Drivers/STM32F4xx_HAL_Driver/Src/stm32f4xx_ll_fmc.c ****   tmpr |= (uint32_t)(Init->Waitfeature                |\
 511:../Drivers/STM32F4xx_HAL_Driver/Src/stm32f4xx_ll_fmc.c ****                      FMC_PCR_MEMORY_TYPE_NAND         |\
 512:../Drivers/STM32F4xx_HAL_Driver/Src/stm32f4xx_ll_fmc.c ****                      Init->MemoryDataWidth            |\
 513:../Drivers/STM32F4xx_HAL_Driver/Src/stm32f4xx_ll_fmc.c ****                      Init->EccComputation             |\
 514:../Drivers/STM32F4xx_HAL_Driver/Src/stm32f4xx_ll_fmc.c ****                      Init->ECCPageSize                |\
 515:../Drivers/STM32F4xx_HAL_Driver/Src/stm32f4xx_ll_fmc.c ****                      ((Init->TCLRSetupTime) << 9U)    |\
 516:../Drivers/STM32F4xx_HAL_Driver/Src/stm32f4xx_ll_fmc.c ****                      ((Init->TARSetupTime) << 13U));
 517:../Drivers/STM32F4xx_HAL_Driver/Src/stm32f4xx_ll_fmc.c **** 
 518:../Drivers/STM32F4xx_HAL_Driver/Src/stm32f4xx_ll_fmc.c ****   /* NAND bank registers configuration */
 519:../Drivers/STM32F4xx_HAL_Driver/Src/stm32f4xx_ll_fmc.c ****   Device->PCR  = tmpr;
 520:../Drivers/STM32F4xx_HAL_Driver/Src/stm32f4xx_ll_fmc.c **** 
 521:../Drivers/STM32F4xx_HAL_Driver/Src/stm32f4xx_ll_fmc.c ****   return HAL_OK;
 522:../Drivers/STM32F4xx_HAL_Driver/Src/stm32f4xx_ll_fmc.c **** }
 523:../Drivers/STM32F4xx_HAL_Driver/Src/stm32f4xx_ll_fmc.c **** 
 524:../Drivers/STM32F4xx_HAL_Driver/Src/stm32f4xx_ll_fmc.c **** /**
 525:../Drivers/STM32F4xx_HAL_Driver/Src/stm32f4xx_ll_fmc.c ****   * @brief  Initializes the FMC_NAND Common space Timing according to the specified
 526:../Drivers/STM32F4xx_HAL_Driver/Src/stm32f4xx_ll_fmc.c ****   *         parameters in the FMC_NAND_PCC_TimingTypeDef
 527:../Drivers/STM32F4xx_HAL_Driver/Src/stm32f4xx_ll_fmc.c ****   * @param  Device Pointer to NAND device instance
 528:../Drivers/STM32F4xx_HAL_Driver/Src/stm32f4xx_ll_fmc.c ****   * @param  Timing Pointer to NAND timing structure
 529:../Drivers/STM32F4xx_HAL_Driver/Src/stm32f4xx_ll_fmc.c ****   * @param  Bank NAND bank number   
 530:../Drivers/STM32F4xx_HAL_Driver/Src/stm32f4xx_ll_fmc.c ****   * @retval HAL status
 531:../Drivers/STM32F4xx_HAL_Driver/Src/stm32f4xx_ll_fmc.c ****   */
 532:../Drivers/STM32F4xx_HAL_Driver/Src/stm32f4xx_ll_fmc.c **** HAL_StatusTypeDef FMC_NAND_CommonSpace_Timing_Init(FMC_NAND_TypeDef *Device, FMC_NAND_PCC_TimingTyp
 533:../Drivers/STM32F4xx_HAL_Driver/Src/stm32f4xx_ll_fmc.c **** {
 534:../Drivers/STM32F4xx_HAL_Driver/Src/stm32f4xx_ll_fmc.c ****   uint32_t tmpr = 0U;  
 535:../Drivers/STM32F4xx_HAL_Driver/Src/stm32f4xx_ll_fmc.c ****   
 536:../Drivers/STM32F4xx_HAL_Driver/Src/stm32f4xx_ll_fmc.c ****   /* Check the parameters */
 537:../Drivers/STM32F4xx_HAL_Driver/Src/stm32f4xx_ll_fmc.c ****   assert_param(IS_FMC_NAND_DEVICE(Device));
 538:../Drivers/STM32F4xx_HAL_Driver/Src/stm32f4xx_ll_fmc.c ****   assert_param(IS_FMC_SETUP_TIME(Timing->SetupTime));
 539:../Drivers/STM32F4xx_HAL_Driver/Src/stm32f4xx_ll_fmc.c ****   assert_param(IS_FMC_WAIT_TIME(Timing->WaitSetupTime));
 540:../Drivers/STM32F4xx_HAL_Driver/Src/stm32f4xx_ll_fmc.c ****   assert_param(IS_FMC_HOLD_TIME(Timing->HoldSetupTime));
 541:../Drivers/STM32F4xx_HAL_Driver/Src/stm32f4xx_ll_fmc.c ****   assert_param(IS_FMC_HIZ_TIME(Timing->HiZSetupTime));
ARM GAS  /tmp/cc2u48vv.s 			page 20


 542:../Drivers/STM32F4xx_HAL_Driver/Src/stm32f4xx_ll_fmc.c ****   assert_param(IS_FMC_NAND_BANK(Bank));
 543:../Drivers/STM32F4xx_HAL_Driver/Src/stm32f4xx_ll_fmc.c ****   
 544:../Drivers/STM32F4xx_HAL_Driver/Src/stm32f4xx_ll_fmc.c ****   /* Get the NAND bank 2 register value */
 545:../Drivers/STM32F4xx_HAL_Driver/Src/stm32f4xx_ll_fmc.c ****   tmpr = Device->PMEM;
 546:../Drivers/STM32F4xx_HAL_Driver/Src/stm32f4xx_ll_fmc.c **** 
 547:../Drivers/STM32F4xx_HAL_Driver/Src/stm32f4xx_ll_fmc.c ****   
 548:../Drivers/STM32F4xx_HAL_Driver/Src/stm32f4xx_ll_fmc.c ****   /* Clear MEMSETx, MEMWAITx, MEMHOLDx and MEMHIZx bits */
 549:../Drivers/STM32F4xx_HAL_Driver/Src/stm32f4xx_ll_fmc.c ****   tmpr &= ((uint32_t)~(FMC_PMEM_MEMSET2  | FMC_PMEM_MEMWAIT2 | FMC_PMEM_MEMHOLD2 | \
 550:../Drivers/STM32F4xx_HAL_Driver/Src/stm32f4xx_ll_fmc.c ****                        FMC_PMEM_MEMHIZ2)); 
 551:../Drivers/STM32F4xx_HAL_Driver/Src/stm32f4xx_ll_fmc.c ****   
 552:../Drivers/STM32F4xx_HAL_Driver/Src/stm32f4xx_ll_fmc.c ****   /* Set FMC_NAND device timing parameters */
 553:../Drivers/STM32F4xx_HAL_Driver/Src/stm32f4xx_ll_fmc.c ****   tmpr |= (uint32_t)(Timing->SetupTime                     |\
 554:../Drivers/STM32F4xx_HAL_Driver/Src/stm32f4xx_ll_fmc.c ****                        ((Timing->WaitSetupTime) << 8U)     |\
 555:../Drivers/STM32F4xx_HAL_Driver/Src/stm32f4xx_ll_fmc.c ****                        ((Timing->HoldSetupTime) << 16U)    |\
 556:../Drivers/STM32F4xx_HAL_Driver/Src/stm32f4xx_ll_fmc.c ****                        ((Timing->HiZSetupTime) << 24U)
 557:../Drivers/STM32F4xx_HAL_Driver/Src/stm32f4xx_ll_fmc.c ****                        );
 558:../Drivers/STM32F4xx_HAL_Driver/Src/stm32f4xx_ll_fmc.c ****                        
 559:../Drivers/STM32F4xx_HAL_Driver/Src/stm32f4xx_ll_fmc.c ****   /* NAND bank  registers configuration */
 560:../Drivers/STM32F4xx_HAL_Driver/Src/stm32f4xx_ll_fmc.c ****   Device->PMEM = tmpr;
 561:../Drivers/STM32F4xx_HAL_Driver/Src/stm32f4xx_ll_fmc.c **** 
 562:../Drivers/STM32F4xx_HAL_Driver/Src/stm32f4xx_ll_fmc.c ****   return HAL_OK;  
 563:../Drivers/STM32F4xx_HAL_Driver/Src/stm32f4xx_ll_fmc.c **** }
 564:../Drivers/STM32F4xx_HAL_Driver/Src/stm32f4xx_ll_fmc.c **** 
 565:../Drivers/STM32F4xx_HAL_Driver/Src/stm32f4xx_ll_fmc.c **** /**
 566:../Drivers/STM32F4xx_HAL_Driver/Src/stm32f4xx_ll_fmc.c ****   * @brief  Initializes the FMC_NAND Attribute space Timing according to the specified
 567:../Drivers/STM32F4xx_HAL_Driver/Src/stm32f4xx_ll_fmc.c ****   *         parameters in the FMC_NAND_PCC_TimingTypeDef
 568:../Drivers/STM32F4xx_HAL_Driver/Src/stm32f4xx_ll_fmc.c ****   * @param  Device Pointer to NAND device instance
 569:../Drivers/STM32F4xx_HAL_Driver/Src/stm32f4xx_ll_fmc.c ****   * @param  Timing Pointer to NAND timing structure
 570:../Drivers/STM32F4xx_HAL_Driver/Src/stm32f4xx_ll_fmc.c ****   * @param  Bank NAND bank number 
 571:../Drivers/STM32F4xx_HAL_Driver/Src/stm32f4xx_ll_fmc.c ****   * @retval HAL status
 572:../Drivers/STM32F4xx_HAL_Driver/Src/stm32f4xx_ll_fmc.c ****   */
 573:../Drivers/STM32F4xx_HAL_Driver/Src/stm32f4xx_ll_fmc.c **** HAL_StatusTypeDef FMC_NAND_AttributeSpace_Timing_Init(FMC_NAND_TypeDef *Device, FMC_NAND_PCC_Timing
 574:../Drivers/STM32F4xx_HAL_Driver/Src/stm32f4xx_ll_fmc.c **** {
 575:../Drivers/STM32F4xx_HAL_Driver/Src/stm32f4xx_ll_fmc.c ****   uint32_t tmpr = 0U;  
 576:../Drivers/STM32F4xx_HAL_Driver/Src/stm32f4xx_ll_fmc.c ****   
 577:../Drivers/STM32F4xx_HAL_Driver/Src/stm32f4xx_ll_fmc.c ****   /* Check the parameters */ 
 578:../Drivers/STM32F4xx_HAL_Driver/Src/stm32f4xx_ll_fmc.c ****   assert_param(IS_FMC_NAND_DEVICE(Device)); 
 579:../Drivers/STM32F4xx_HAL_Driver/Src/stm32f4xx_ll_fmc.c ****   assert_param(IS_FMC_SETUP_TIME(Timing->SetupTime));
 580:../Drivers/STM32F4xx_HAL_Driver/Src/stm32f4xx_ll_fmc.c ****   assert_param(IS_FMC_WAIT_TIME(Timing->WaitSetupTime));
 581:../Drivers/STM32F4xx_HAL_Driver/Src/stm32f4xx_ll_fmc.c ****   assert_param(IS_FMC_HOLD_TIME(Timing->HoldSetupTime));
 582:../Drivers/STM32F4xx_HAL_Driver/Src/stm32f4xx_ll_fmc.c ****   assert_param(IS_FMC_HIZ_TIME(Timing->HiZSetupTime));
 583:../Drivers/STM32F4xx_HAL_Driver/Src/stm32f4xx_ll_fmc.c ****   assert_param(IS_FMC_NAND_BANK(Bank));
 584:../Drivers/STM32F4xx_HAL_Driver/Src/stm32f4xx_ll_fmc.c **** 
 585:../Drivers/STM32F4xx_HAL_Driver/Src/stm32f4xx_ll_fmc.c ****   /* Get the NAND bank  register value */
 586:../Drivers/STM32F4xx_HAL_Driver/Src/stm32f4xx_ll_fmc.c ****   tmpr = Device->PATT;
 587:../Drivers/STM32F4xx_HAL_Driver/Src/stm32f4xx_ll_fmc.c **** 
 588:../Drivers/STM32F4xx_HAL_Driver/Src/stm32f4xx_ll_fmc.c ****   /* Clear ATTSETx, ATTWAITx, ATTHOLDx and ATTHIZx bits */
 589:../Drivers/STM32F4xx_HAL_Driver/Src/stm32f4xx_ll_fmc.c ****   tmpr &= ((uint32_t)~(FMC_PATT_ATTSET2  | FMC_PATT_ATTWAIT2 | FMC_PATT_ATTHOLD2 | \
 590:../Drivers/STM32F4xx_HAL_Driver/Src/stm32f4xx_ll_fmc.c ****                        FMC_PATT_ATTHIZ2));
 591:../Drivers/STM32F4xx_HAL_Driver/Src/stm32f4xx_ll_fmc.c ****   
 592:../Drivers/STM32F4xx_HAL_Driver/Src/stm32f4xx_ll_fmc.c ****   /* Set FMC_NAND device timing parameters */
 593:../Drivers/STM32F4xx_HAL_Driver/Src/stm32f4xx_ll_fmc.c ****   tmpr |= (uint32_t)(Timing->SetupTime                 |\
 594:../Drivers/STM32F4xx_HAL_Driver/Src/stm32f4xx_ll_fmc.c ****                    ((Timing->WaitSetupTime) << 8U)     |\
 595:../Drivers/STM32F4xx_HAL_Driver/Src/stm32f4xx_ll_fmc.c ****                    ((Timing->HoldSetupTime) << 16U)    |\
 596:../Drivers/STM32F4xx_HAL_Driver/Src/stm32f4xx_ll_fmc.c ****                    ((Timing->HiZSetupTime) << 24U));
 597:../Drivers/STM32F4xx_HAL_Driver/Src/stm32f4xx_ll_fmc.c **** 
 598:../Drivers/STM32F4xx_HAL_Driver/Src/stm32f4xx_ll_fmc.c ****   /* NAND bank registers configuration */
ARM GAS  /tmp/cc2u48vv.s 			page 21


 599:../Drivers/STM32F4xx_HAL_Driver/Src/stm32f4xx_ll_fmc.c ****   Device->PATT = tmpr; 
 600:../Drivers/STM32F4xx_HAL_Driver/Src/stm32f4xx_ll_fmc.c ****  
 601:../Drivers/STM32F4xx_HAL_Driver/Src/stm32f4xx_ll_fmc.c ****   return HAL_OK;
 602:../Drivers/STM32F4xx_HAL_Driver/Src/stm32f4xx_ll_fmc.c **** }
 603:../Drivers/STM32F4xx_HAL_Driver/Src/stm32f4xx_ll_fmc.c **** 
 604:../Drivers/STM32F4xx_HAL_Driver/Src/stm32f4xx_ll_fmc.c **** 
 605:../Drivers/STM32F4xx_HAL_Driver/Src/stm32f4xx_ll_fmc.c **** /**
 606:../Drivers/STM32F4xx_HAL_Driver/Src/stm32f4xx_ll_fmc.c ****   * @brief  DeInitializes the FMC_NAND device 
 607:../Drivers/STM32F4xx_HAL_Driver/Src/stm32f4xx_ll_fmc.c ****   * @param  Device Pointer to NAND device instance
 608:../Drivers/STM32F4xx_HAL_Driver/Src/stm32f4xx_ll_fmc.c ****   * @param  Bank NAND bank number
 609:../Drivers/STM32F4xx_HAL_Driver/Src/stm32f4xx_ll_fmc.c ****   * @retval HAL status
 610:../Drivers/STM32F4xx_HAL_Driver/Src/stm32f4xx_ll_fmc.c ****   */
 611:../Drivers/STM32F4xx_HAL_Driver/Src/stm32f4xx_ll_fmc.c **** HAL_StatusTypeDef FMC_NAND_DeInit(FMC_NAND_TypeDef *Device, uint32_t Bank)
 612:../Drivers/STM32F4xx_HAL_Driver/Src/stm32f4xx_ll_fmc.c **** {
 613:../Drivers/STM32F4xx_HAL_Driver/Src/stm32f4xx_ll_fmc.c ****   /* Check the parameters */ 
 614:../Drivers/STM32F4xx_HAL_Driver/Src/stm32f4xx_ll_fmc.c ****   assert_param(IS_FMC_NAND_DEVICE(Device)); 
 615:../Drivers/STM32F4xx_HAL_Driver/Src/stm32f4xx_ll_fmc.c ****   assert_param(IS_FMC_NAND_BANK(Bank));
 616:../Drivers/STM32F4xx_HAL_Driver/Src/stm32f4xx_ll_fmc.c ****   
 617:../Drivers/STM32F4xx_HAL_Driver/Src/stm32f4xx_ll_fmc.c ****   /* Disable the NAND Bank */
 618:../Drivers/STM32F4xx_HAL_Driver/Src/stm32f4xx_ll_fmc.c ****   __FMC_NAND_DISABLE(Device, Bank);
 619:../Drivers/STM32F4xx_HAL_Driver/Src/stm32f4xx_ll_fmc.c ****   
 620:../Drivers/STM32F4xx_HAL_Driver/Src/stm32f4xx_ll_fmc.c ****   /* De-initialize the NAND Bank */
 621:../Drivers/STM32F4xx_HAL_Driver/Src/stm32f4xx_ll_fmc.c ****   /* Set the FMC_NAND_BANK registers to their reset values */
 622:../Drivers/STM32F4xx_HAL_Driver/Src/stm32f4xx_ll_fmc.c ****   Device->PCR  = 0x00000018U;
 623:../Drivers/STM32F4xx_HAL_Driver/Src/stm32f4xx_ll_fmc.c ****   Device->SR   = 0x00000040U;
 624:../Drivers/STM32F4xx_HAL_Driver/Src/stm32f4xx_ll_fmc.c ****   Device->PMEM = 0xFCFCFCFCU;
 625:../Drivers/STM32F4xx_HAL_Driver/Src/stm32f4xx_ll_fmc.c ****   Device->PATT = 0xFCFCFCFCU;
 626:../Drivers/STM32F4xx_HAL_Driver/Src/stm32f4xx_ll_fmc.c **** 
 627:../Drivers/STM32F4xx_HAL_Driver/Src/stm32f4xx_ll_fmc.c ****   return HAL_OK;
 628:../Drivers/STM32F4xx_HAL_Driver/Src/stm32f4xx_ll_fmc.c **** }
 629:../Drivers/STM32F4xx_HAL_Driver/Src/stm32f4xx_ll_fmc.c **** 
 630:../Drivers/STM32F4xx_HAL_Driver/Src/stm32f4xx_ll_fmc.c **** /**
 631:../Drivers/STM32F4xx_HAL_Driver/Src/stm32f4xx_ll_fmc.c ****   * @}
 632:../Drivers/STM32F4xx_HAL_Driver/Src/stm32f4xx_ll_fmc.c ****   */
 633:../Drivers/STM32F4xx_HAL_Driver/Src/stm32f4xx_ll_fmc.c ****   
 634:../Drivers/STM32F4xx_HAL_Driver/Src/stm32f4xx_ll_fmc.c ****   
 635:../Drivers/STM32F4xx_HAL_Driver/Src/stm32f4xx_ll_fmc.c **** /** @defgroup HAL_FMC_NAND_Group2 Control functions 
 636:../Drivers/STM32F4xx_HAL_Driver/Src/stm32f4xx_ll_fmc.c ****  *  @brief   management functions 
 637:../Drivers/STM32F4xx_HAL_Driver/Src/stm32f4xx_ll_fmc.c ****  *
 638:../Drivers/STM32F4xx_HAL_Driver/Src/stm32f4xx_ll_fmc.c **** @verbatim   
 639:../Drivers/STM32F4xx_HAL_Driver/Src/stm32f4xx_ll_fmc.c ****   ==============================================================================
 640:../Drivers/STM32F4xx_HAL_Driver/Src/stm32f4xx_ll_fmc.c ****                        ##### FMC_NAND Control functions #####
 641:../Drivers/STM32F4xx_HAL_Driver/Src/stm32f4xx_ll_fmc.c ****   ==============================================================================  
 642:../Drivers/STM32F4xx_HAL_Driver/Src/stm32f4xx_ll_fmc.c ****   [..]
 643:../Drivers/STM32F4xx_HAL_Driver/Src/stm32f4xx_ll_fmc.c ****     This subsection provides a set of functions allowing to control dynamically
 644:../Drivers/STM32F4xx_HAL_Driver/Src/stm32f4xx_ll_fmc.c ****     the FMC NAND interface.
 645:../Drivers/STM32F4xx_HAL_Driver/Src/stm32f4xx_ll_fmc.c **** 
 646:../Drivers/STM32F4xx_HAL_Driver/Src/stm32f4xx_ll_fmc.c **** @endverbatim
 647:../Drivers/STM32F4xx_HAL_Driver/Src/stm32f4xx_ll_fmc.c ****   * @{
 648:../Drivers/STM32F4xx_HAL_Driver/Src/stm32f4xx_ll_fmc.c ****   */ 
 649:../Drivers/STM32F4xx_HAL_Driver/Src/stm32f4xx_ll_fmc.c **** 
 650:../Drivers/STM32F4xx_HAL_Driver/Src/stm32f4xx_ll_fmc.c ****     
 651:../Drivers/STM32F4xx_HAL_Driver/Src/stm32f4xx_ll_fmc.c **** /**
 652:../Drivers/STM32F4xx_HAL_Driver/Src/stm32f4xx_ll_fmc.c ****   * @brief  Enables dynamically FMC_NAND ECC feature.
 653:../Drivers/STM32F4xx_HAL_Driver/Src/stm32f4xx_ll_fmc.c ****   * @param  Device Pointer to NAND device instance
 654:../Drivers/STM32F4xx_HAL_Driver/Src/stm32f4xx_ll_fmc.c ****   * @param  Bank NAND bank number
 655:../Drivers/STM32F4xx_HAL_Driver/Src/stm32f4xx_ll_fmc.c ****   * @retval HAL status
ARM GAS  /tmp/cc2u48vv.s 			page 22


 656:../Drivers/STM32F4xx_HAL_Driver/Src/stm32f4xx_ll_fmc.c ****   */    
 657:../Drivers/STM32F4xx_HAL_Driver/Src/stm32f4xx_ll_fmc.c **** HAL_StatusTypeDef FMC_NAND_ECC_Enable(FMC_NAND_TypeDef *Device, uint32_t Bank)
 658:../Drivers/STM32F4xx_HAL_Driver/Src/stm32f4xx_ll_fmc.c **** {
 659:../Drivers/STM32F4xx_HAL_Driver/Src/stm32f4xx_ll_fmc.c ****   /* Check the parameters */ 
 660:../Drivers/STM32F4xx_HAL_Driver/Src/stm32f4xx_ll_fmc.c ****   assert_param(IS_FMC_NAND_DEVICE(Device)); 
 661:../Drivers/STM32F4xx_HAL_Driver/Src/stm32f4xx_ll_fmc.c ****   assert_param(IS_FMC_NAND_BANK(Bank));
 662:../Drivers/STM32F4xx_HAL_Driver/Src/stm32f4xx_ll_fmc.c **** 
 663:../Drivers/STM32F4xx_HAL_Driver/Src/stm32f4xx_ll_fmc.c ****   /* Enable ECC feature */
 664:../Drivers/STM32F4xx_HAL_Driver/Src/stm32f4xx_ll_fmc.c ****   Device->PCR |= FMC_PCR_ECCEN;
 665:../Drivers/STM32F4xx_HAL_Driver/Src/stm32f4xx_ll_fmc.c **** 
 666:../Drivers/STM32F4xx_HAL_Driver/Src/stm32f4xx_ll_fmc.c ****   return HAL_OK;  
 667:../Drivers/STM32F4xx_HAL_Driver/Src/stm32f4xx_ll_fmc.c **** }
 668:../Drivers/STM32F4xx_HAL_Driver/Src/stm32f4xx_ll_fmc.c **** 
 669:../Drivers/STM32F4xx_HAL_Driver/Src/stm32f4xx_ll_fmc.c **** 
 670:../Drivers/STM32F4xx_HAL_Driver/Src/stm32f4xx_ll_fmc.c **** /**
 671:../Drivers/STM32F4xx_HAL_Driver/Src/stm32f4xx_ll_fmc.c ****   * @brief  Disables dynamically FMC_NAND ECC feature.
 672:../Drivers/STM32F4xx_HAL_Driver/Src/stm32f4xx_ll_fmc.c ****   * @param  Device Pointer to NAND device instance
 673:../Drivers/STM32F4xx_HAL_Driver/Src/stm32f4xx_ll_fmc.c ****   * @param  Bank NAND bank number
 674:../Drivers/STM32F4xx_HAL_Driver/Src/stm32f4xx_ll_fmc.c ****   * @retval HAL status
 675:../Drivers/STM32F4xx_HAL_Driver/Src/stm32f4xx_ll_fmc.c ****   */  
 676:../Drivers/STM32F4xx_HAL_Driver/Src/stm32f4xx_ll_fmc.c **** HAL_StatusTypeDef FMC_NAND_ECC_Disable(FMC_NAND_TypeDef *Device, uint32_t Bank)  
 677:../Drivers/STM32F4xx_HAL_Driver/Src/stm32f4xx_ll_fmc.c **** {  
 678:../Drivers/STM32F4xx_HAL_Driver/Src/stm32f4xx_ll_fmc.c ****   /* Check the parameters */ 
 679:../Drivers/STM32F4xx_HAL_Driver/Src/stm32f4xx_ll_fmc.c ****   assert_param(IS_FMC_NAND_DEVICE(Device)); 
 680:../Drivers/STM32F4xx_HAL_Driver/Src/stm32f4xx_ll_fmc.c ****   assert_param(IS_FMC_NAND_BANK(Bank));
 681:../Drivers/STM32F4xx_HAL_Driver/Src/stm32f4xx_ll_fmc.c ****   
 682:../Drivers/STM32F4xx_HAL_Driver/Src/stm32f4xx_ll_fmc.c ****   /* Disable ECC feature */
 683:../Drivers/STM32F4xx_HAL_Driver/Src/stm32f4xx_ll_fmc.c ****   Device->PCR &= ~FMC_PCR_ECCEN;
 684:../Drivers/STM32F4xx_HAL_Driver/Src/stm32f4xx_ll_fmc.c **** 
 685:../Drivers/STM32F4xx_HAL_Driver/Src/stm32f4xx_ll_fmc.c ****   return HAL_OK;  
 686:../Drivers/STM32F4xx_HAL_Driver/Src/stm32f4xx_ll_fmc.c **** }
 687:../Drivers/STM32F4xx_HAL_Driver/Src/stm32f4xx_ll_fmc.c **** 
 688:../Drivers/STM32F4xx_HAL_Driver/Src/stm32f4xx_ll_fmc.c **** /**
 689:../Drivers/STM32F4xx_HAL_Driver/Src/stm32f4xx_ll_fmc.c ****   * @brief  Disables dynamically FMC_NAND ECC feature.
 690:../Drivers/STM32F4xx_HAL_Driver/Src/stm32f4xx_ll_fmc.c ****   * @param  Device Pointer to NAND device instance
 691:../Drivers/STM32F4xx_HAL_Driver/Src/stm32f4xx_ll_fmc.c ****   * @param  ECCval Pointer to ECC value
 692:../Drivers/STM32F4xx_HAL_Driver/Src/stm32f4xx_ll_fmc.c ****   * @param  Bank NAND bank number
 693:../Drivers/STM32F4xx_HAL_Driver/Src/stm32f4xx_ll_fmc.c ****   * @param  Timeout Timeout wait value  
 694:../Drivers/STM32F4xx_HAL_Driver/Src/stm32f4xx_ll_fmc.c ****   * @retval HAL status
 695:../Drivers/STM32F4xx_HAL_Driver/Src/stm32f4xx_ll_fmc.c ****   */
 696:../Drivers/STM32F4xx_HAL_Driver/Src/stm32f4xx_ll_fmc.c **** HAL_StatusTypeDef FMC_NAND_GetECC(FMC_NAND_TypeDef *Device, uint32_t *ECCval, uint32_t Bank, uint32
 697:../Drivers/STM32F4xx_HAL_Driver/Src/stm32f4xx_ll_fmc.c **** {
 698:../Drivers/STM32F4xx_HAL_Driver/Src/stm32f4xx_ll_fmc.c ****   uint32_t tickstart = 0U;
 699:../Drivers/STM32F4xx_HAL_Driver/Src/stm32f4xx_ll_fmc.c ****   
 700:../Drivers/STM32F4xx_HAL_Driver/Src/stm32f4xx_ll_fmc.c ****   /* Check the parameters */ 
 701:../Drivers/STM32F4xx_HAL_Driver/Src/stm32f4xx_ll_fmc.c ****   assert_param(IS_FMC_NAND_DEVICE(Device)); 
 702:../Drivers/STM32F4xx_HAL_Driver/Src/stm32f4xx_ll_fmc.c ****   assert_param(IS_FMC_NAND_BANK(Bank));
 703:../Drivers/STM32F4xx_HAL_Driver/Src/stm32f4xx_ll_fmc.c ****   
 704:../Drivers/STM32F4xx_HAL_Driver/Src/stm32f4xx_ll_fmc.c ****   /* Get tick */ 
 705:../Drivers/STM32F4xx_HAL_Driver/Src/stm32f4xx_ll_fmc.c ****   tickstart = HAL_GetTick();
 706:../Drivers/STM32F4xx_HAL_Driver/Src/stm32f4xx_ll_fmc.c ****   
 707:../Drivers/STM32F4xx_HAL_Driver/Src/stm32f4xx_ll_fmc.c ****   /* Wait until FIFO is empty */
 708:../Drivers/STM32F4xx_HAL_Driver/Src/stm32f4xx_ll_fmc.c ****   while(__FMC_NAND_GET_FLAG(Device, Bank, FMC_FLAG_FEMPT) == RESET)
 709:../Drivers/STM32F4xx_HAL_Driver/Src/stm32f4xx_ll_fmc.c ****   {
 710:../Drivers/STM32F4xx_HAL_Driver/Src/stm32f4xx_ll_fmc.c ****     /* Check for the Timeout */
 711:../Drivers/STM32F4xx_HAL_Driver/Src/stm32f4xx_ll_fmc.c ****     if(Timeout != HAL_MAX_DELAY)
 712:../Drivers/STM32F4xx_HAL_Driver/Src/stm32f4xx_ll_fmc.c ****     {
ARM GAS  /tmp/cc2u48vv.s 			page 23


 713:../Drivers/STM32F4xx_HAL_Driver/Src/stm32f4xx_ll_fmc.c ****       if((Timeout == 0U)||((HAL_GetTick() - tickstart ) > Timeout))
 714:../Drivers/STM32F4xx_HAL_Driver/Src/stm32f4xx_ll_fmc.c ****       {
 715:../Drivers/STM32F4xx_HAL_Driver/Src/stm32f4xx_ll_fmc.c ****         return HAL_TIMEOUT;
 716:../Drivers/STM32F4xx_HAL_Driver/Src/stm32f4xx_ll_fmc.c ****       }
 717:../Drivers/STM32F4xx_HAL_Driver/Src/stm32f4xx_ll_fmc.c ****     }  
 718:../Drivers/STM32F4xx_HAL_Driver/Src/stm32f4xx_ll_fmc.c ****   }
 719:../Drivers/STM32F4xx_HAL_Driver/Src/stm32f4xx_ll_fmc.c ****   
 720:../Drivers/STM32F4xx_HAL_Driver/Src/stm32f4xx_ll_fmc.c ****   /* Get the ECCR register value */
 721:../Drivers/STM32F4xx_HAL_Driver/Src/stm32f4xx_ll_fmc.c ****   *ECCval = (uint32_t)Device->ECCR;
 722:../Drivers/STM32F4xx_HAL_Driver/Src/stm32f4xx_ll_fmc.c **** 
 723:../Drivers/STM32F4xx_HAL_Driver/Src/stm32f4xx_ll_fmc.c ****   return HAL_OK;  
 724:../Drivers/STM32F4xx_HAL_Driver/Src/stm32f4xx_ll_fmc.c **** }
 725:../Drivers/STM32F4xx_HAL_Driver/Src/stm32f4xx_ll_fmc.c **** 
 726:../Drivers/STM32F4xx_HAL_Driver/Src/stm32f4xx_ll_fmc.c **** /**
 727:../Drivers/STM32F4xx_HAL_Driver/Src/stm32f4xx_ll_fmc.c ****   * @}
 728:../Drivers/STM32F4xx_HAL_Driver/Src/stm32f4xx_ll_fmc.c ****   */
 729:../Drivers/STM32F4xx_HAL_Driver/Src/stm32f4xx_ll_fmc.c **** 
 730:../Drivers/STM32F4xx_HAL_Driver/Src/stm32f4xx_ll_fmc.c **** #else /* defined(STM32F427xx) || defined(STM32F437xx) || defined(STM32F429xx) || defined(STM32F439x
 731:../Drivers/STM32F4xx_HAL_Driver/Src/stm32f4xx_ll_fmc.c **** /** @defgroup HAL_FMC_NAND_Group1 Initialization/de-initialization functions 
 732:../Drivers/STM32F4xx_HAL_Driver/Src/stm32f4xx_ll_fmc.c ****  *  @brief    Initialization and Configuration functions 
 733:../Drivers/STM32F4xx_HAL_Driver/Src/stm32f4xx_ll_fmc.c ****  *
 734:../Drivers/STM32F4xx_HAL_Driver/Src/stm32f4xx_ll_fmc.c **** @verbatim    
 735:../Drivers/STM32F4xx_HAL_Driver/Src/stm32f4xx_ll_fmc.c ****   ==============================================================================
 736:../Drivers/STM32F4xx_HAL_Driver/Src/stm32f4xx_ll_fmc.c ****               ##### Initialization and de_initialization functions #####
 737:../Drivers/STM32F4xx_HAL_Driver/Src/stm32f4xx_ll_fmc.c ****   ==============================================================================
 738:../Drivers/STM32F4xx_HAL_Driver/Src/stm32f4xx_ll_fmc.c ****   [..]  
 739:../Drivers/STM32F4xx_HAL_Driver/Src/stm32f4xx_ll_fmc.c ****     This section provides functions allowing to:
 740:../Drivers/STM32F4xx_HAL_Driver/Src/stm32f4xx_ll_fmc.c ****     (+) Initialize and configure the FMC NAND interface
 741:../Drivers/STM32F4xx_HAL_Driver/Src/stm32f4xx_ll_fmc.c ****     (+) De-initialize the FMC NAND interface 
 742:../Drivers/STM32F4xx_HAL_Driver/Src/stm32f4xx_ll_fmc.c ****     (+) Configure the FMC clock and associated GPIOs
 743:../Drivers/STM32F4xx_HAL_Driver/Src/stm32f4xx_ll_fmc.c ****         
 744:../Drivers/STM32F4xx_HAL_Driver/Src/stm32f4xx_ll_fmc.c **** @endverbatim
 745:../Drivers/STM32F4xx_HAL_Driver/Src/stm32f4xx_ll_fmc.c ****   * @{
 746:../Drivers/STM32F4xx_HAL_Driver/Src/stm32f4xx_ll_fmc.c ****   */
 747:../Drivers/STM32F4xx_HAL_Driver/Src/stm32f4xx_ll_fmc.c **** /**
 748:../Drivers/STM32F4xx_HAL_Driver/Src/stm32f4xx_ll_fmc.c ****   * @brief  Initializes the FMC_NAND device according to the specified
 749:../Drivers/STM32F4xx_HAL_Driver/Src/stm32f4xx_ll_fmc.c ****   *         control parameters in the FMC_NAND_HandleTypeDef
 750:../Drivers/STM32F4xx_HAL_Driver/Src/stm32f4xx_ll_fmc.c ****   * @param  Device Pointer to NAND device instance
 751:../Drivers/STM32F4xx_HAL_Driver/Src/stm32f4xx_ll_fmc.c ****   * @param  Init Pointer to NAND Initialization structure
 752:../Drivers/STM32F4xx_HAL_Driver/Src/stm32f4xx_ll_fmc.c ****   * @retval HAL status
 753:../Drivers/STM32F4xx_HAL_Driver/Src/stm32f4xx_ll_fmc.c ****   */
 754:../Drivers/STM32F4xx_HAL_Driver/Src/stm32f4xx_ll_fmc.c **** HAL_StatusTypeDef FMC_NAND_Init(FMC_NAND_TypeDef *Device, FMC_NAND_InitTypeDef *Init)
 755:../Drivers/STM32F4xx_HAL_Driver/Src/stm32f4xx_ll_fmc.c **** {
 518              		.loc 1 755 1 is_stmt 1 view -0
 519              		.cfi_startproc
 520              		@ args = 0, pretend = 0, frame = 0
 521              		@ frame_needed = 0, uses_anonymous_args = 0
 522              		@ link register save eliminated.
 523              		.loc 1 755 1 is_stmt 0 view .LVU175
 524 0000 30B4     		push	{r4, r5}
 525              	.LCFI6:
 526              		.cfi_def_cfa_offset 8
 527              		.cfi_offset 4, -8
 528              		.cfi_offset 5, -4
 756:../Drivers/STM32F4xx_HAL_Driver/Src/stm32f4xx_ll_fmc.c ****   uint32_t tmpr  = 0U; 
 529              		.loc 1 756 3 is_stmt 1 view .LVU176
 530              	.LVL41:
ARM GAS  /tmp/cc2u48vv.s 			page 24


 757:../Drivers/STM32F4xx_HAL_Driver/Src/stm32f4xx_ll_fmc.c ****     
 758:../Drivers/STM32F4xx_HAL_Driver/Src/stm32f4xx_ll_fmc.c ****   /* Check the parameters */
 759:../Drivers/STM32F4xx_HAL_Driver/Src/stm32f4xx_ll_fmc.c ****   assert_param(IS_FMC_NAND_DEVICE(Device));
 531              		.loc 1 759 3 view .LVU177
 760:../Drivers/STM32F4xx_HAL_Driver/Src/stm32f4xx_ll_fmc.c ****   assert_param(IS_FMC_NAND_BANK(Init->NandBank));
 532              		.loc 1 760 3 view .LVU178
 761:../Drivers/STM32F4xx_HAL_Driver/Src/stm32f4xx_ll_fmc.c ****   assert_param(IS_FMC_WAIT_FEATURE(Init->Waitfeature));
 533              		.loc 1 761 3 view .LVU179
 762:../Drivers/STM32F4xx_HAL_Driver/Src/stm32f4xx_ll_fmc.c ****   assert_param(IS_FMC_NAND_MEMORY_WIDTH(Init->MemoryDataWidth));
 534              		.loc 1 762 3 view .LVU180
 763:../Drivers/STM32F4xx_HAL_Driver/Src/stm32f4xx_ll_fmc.c ****   assert_param(IS_FMC_ECC_STATE(Init->EccComputation));
 535              		.loc 1 763 3 view .LVU181
 764:../Drivers/STM32F4xx_HAL_Driver/Src/stm32f4xx_ll_fmc.c ****   assert_param(IS_FMC_ECCPAGE_SIZE(Init->ECCPageSize));
 536              		.loc 1 764 3 view .LVU182
 765:../Drivers/STM32F4xx_HAL_Driver/Src/stm32f4xx_ll_fmc.c ****   assert_param(IS_FMC_TCLR_TIME(Init->TCLRSetupTime));
 537              		.loc 1 765 3 view .LVU183
 766:../Drivers/STM32F4xx_HAL_Driver/Src/stm32f4xx_ll_fmc.c ****   assert_param(IS_FMC_TAR_TIME(Init->TARSetupTime));   
 538              		.loc 1 766 3 view .LVU184
 767:../Drivers/STM32F4xx_HAL_Driver/Src/stm32f4xx_ll_fmc.c **** 
 768:../Drivers/STM32F4xx_HAL_Driver/Src/stm32f4xx_ll_fmc.c ****   if(Init->NandBank == FMC_NAND_BANK2)
 539              		.loc 1 768 3 view .LVU185
 540              		.loc 1 768 10 is_stmt 0 view .LVU186
 541 0002 0C68     		ldr	r4, [r1]
 542              		.loc 1 768 5 view .LVU187
 543 0004 102C     		cmp	r4, #16
 544 0006 18D0     		beq	.L33
 769:../Drivers/STM32F4xx_HAL_Driver/Src/stm32f4xx_ll_fmc.c ****   {
 770:../Drivers/STM32F4xx_HAL_Driver/Src/stm32f4xx_ll_fmc.c ****     /* Get the NAND bank 2 register value */
 771:../Drivers/STM32F4xx_HAL_Driver/Src/stm32f4xx_ll_fmc.c ****     tmpr = Device->PCR2;
 772:../Drivers/STM32F4xx_HAL_Driver/Src/stm32f4xx_ll_fmc.c ****   }
 773:../Drivers/STM32F4xx_HAL_Driver/Src/stm32f4xx_ll_fmc.c ****   else
 774:../Drivers/STM32F4xx_HAL_Driver/Src/stm32f4xx_ll_fmc.c ****   {
 775:../Drivers/STM32F4xx_HAL_Driver/Src/stm32f4xx_ll_fmc.c ****     /* Get the NAND bank 3 register value */
 776:../Drivers/STM32F4xx_HAL_Driver/Src/stm32f4xx_ll_fmc.c ****     tmpr = Device->PCR3;
 545              		.loc 1 776 5 is_stmt 1 view .LVU188
 546              		.loc 1 776 10 is_stmt 0 view .LVU189
 547 0008 036A     		ldr	r3, [r0, #32]
 548              	.LVL42:
 549              	.L29:
 777:../Drivers/STM32F4xx_HAL_Driver/Src/stm32f4xx_ll_fmc.c ****   }
 778:../Drivers/STM32F4xx_HAL_Driver/Src/stm32f4xx_ll_fmc.c ****   
 779:../Drivers/STM32F4xx_HAL_Driver/Src/stm32f4xx_ll_fmc.c ****   /* Clear PWAITEN, PBKEN, PTYP, PWID, ECCEN, TCLR, TAR and ECCPS bits */
 780:../Drivers/STM32F4xx_HAL_Driver/Src/stm32f4xx_ll_fmc.c ****   tmpr &= ((uint32_t)~(FMC_PCR2_PWAITEN  | FMC_PCR2_PBKEN | FMC_PCR2_PTYP | \
 550              		.loc 1 780 3 is_stmt 1 view .LVU190
 551              		.loc 1 780 8 is_stmt 0 view .LVU191
 552 000a 0E4A     		ldr	r2, .L35
 553 000c 1A40     		ands	r2, r2, r3
 554              	.LVL43:
 781:../Drivers/STM32F4xx_HAL_Driver/Src/stm32f4xx_ll_fmc.c ****                        FMC_PCR2_PWID | FMC_PCR2_ECCEN | FMC_PCR2_TCLR | \
 782:../Drivers/STM32F4xx_HAL_Driver/Src/stm32f4xx_ll_fmc.c ****                        FMC_PCR2_TAR | FMC_PCR2_ECCPS));  
 783:../Drivers/STM32F4xx_HAL_Driver/Src/stm32f4xx_ll_fmc.c ****   
 784:../Drivers/STM32F4xx_HAL_Driver/Src/stm32f4xx_ll_fmc.c ****   /* Set NAND device control parameters */
 785:../Drivers/STM32F4xx_HAL_Driver/Src/stm32f4xx_ll_fmc.c ****   tmpr |= (uint32_t)(Init->Waitfeature                 |\
 555              		.loc 1 785 3 is_stmt 1 view .LVU192
 556              		.loc 1 785 26 is_stmt 0 view .LVU193
 557 000e 4B68     		ldr	r3, [r1, #4]
 786:../Drivers/STM32F4xx_HAL_Driver/Src/stm32f4xx_ll_fmc.c ****                      FMC_PCR_MEMORY_TYPE_NAND          |\
ARM GAS  /tmp/cc2u48vv.s 			page 25


 558              		.loc 1 786 56 view .LVU194
 559 0010 8D68     		ldr	r5, [r1, #8]
 560 0012 2B43     		orrs	r3, r3, r5
 787:../Drivers/STM32F4xx_HAL_Driver/Src/stm32f4xx_ll_fmc.c ****                      Init->MemoryDataWidth             |\
 561              		.loc 1 787 56 view .LVU195
 562 0014 CD68     		ldr	r5, [r1, #12]
 563 0016 2B43     		orrs	r3, r3, r5
 788:../Drivers/STM32F4xx_HAL_Driver/Src/stm32f4xx_ll_fmc.c ****                      Init->EccComputation              |\
 564              		.loc 1 788 56 view .LVU196
 565 0018 0D69     		ldr	r5, [r1, #16]
 566 001a 2B43     		orrs	r3, r3, r5
 789:../Drivers/STM32F4xx_HAL_Driver/Src/stm32f4xx_ll_fmc.c ****                      Init->ECCPageSize                 |\
 567              		.loc 1 789 56 view .LVU197
 568 001c 4D69     		ldr	r5, [r1, #20]
 569 001e 43EA4523 		orr	r3, r3, r5, lsl #9
 790:../Drivers/STM32F4xx_HAL_Driver/Src/stm32f4xx_ll_fmc.c ****                      ((Init->TCLRSetupTime) << 9U)     |\
 791:../Drivers/STM32F4xx_HAL_Driver/Src/stm32f4xx_ll_fmc.c ****                      ((Init->TARSetupTime) << 13U));   
 570              		.loc 1 791 28 view .LVU198
 571 0022 8969     		ldr	r1, [r1, #24]
 572              	.LVL44:
 785:../Drivers/STM32F4xx_HAL_Driver/Src/stm32f4xx_ll_fmc.c ****                      FMC_PCR_MEMORY_TYPE_NAND          |\
 573              		.loc 1 785 11 view .LVU199
 574 0024 43EA4133 		orr	r3, r3, r1, lsl #13
 785:../Drivers/STM32F4xx_HAL_Driver/Src/stm32f4xx_ll_fmc.c ****                      FMC_PCR_MEMORY_TYPE_NAND          |\
 575              		.loc 1 785 8 view .LVU200
 576 0028 1343     		orrs	r3, r3, r2
 577 002a 43F00803 		orr	r3, r3, #8
 578              	.LVL45:
 792:../Drivers/STM32F4xx_HAL_Driver/Src/stm32f4xx_ll_fmc.c ****   
 793:../Drivers/STM32F4xx_HAL_Driver/Src/stm32f4xx_ll_fmc.c ****   if(Init->NandBank == FMC_NAND_BANK2)
 579              		.loc 1 793 3 is_stmt 1 view .LVU201
 580              		.loc 1 793 5 is_stmt 0 view .LVU202
 581 002e 102C     		cmp	r4, #16
 582 0030 05D0     		beq	.L34
 794:../Drivers/STM32F4xx_HAL_Driver/Src/stm32f4xx_ll_fmc.c ****   {
 795:../Drivers/STM32F4xx_HAL_Driver/Src/stm32f4xx_ll_fmc.c ****     /* NAND bank 2 registers configuration */
 796:../Drivers/STM32F4xx_HAL_Driver/Src/stm32f4xx_ll_fmc.c ****     Device->PCR2  = tmpr;
 797:../Drivers/STM32F4xx_HAL_Driver/Src/stm32f4xx_ll_fmc.c ****   }
 798:../Drivers/STM32F4xx_HAL_Driver/Src/stm32f4xx_ll_fmc.c ****   else
 799:../Drivers/STM32F4xx_HAL_Driver/Src/stm32f4xx_ll_fmc.c ****   {
 800:../Drivers/STM32F4xx_HAL_Driver/Src/stm32f4xx_ll_fmc.c ****     /* NAND bank 3 registers configuration */
 801:../Drivers/STM32F4xx_HAL_Driver/Src/stm32f4xx_ll_fmc.c ****     Device->PCR3  = tmpr;
 583              		.loc 1 801 5 is_stmt 1 view .LVU203
 584              		.loc 1 801 19 is_stmt 0 view .LVU204
 585 0032 0362     		str	r3, [r0, #32]
 586              	.L31:
 802:../Drivers/STM32F4xx_HAL_Driver/Src/stm32f4xx_ll_fmc.c ****   }
 803:../Drivers/STM32F4xx_HAL_Driver/Src/stm32f4xx_ll_fmc.c ****   
 804:../Drivers/STM32F4xx_HAL_Driver/Src/stm32f4xx_ll_fmc.c ****   return HAL_OK;
 587              		.loc 1 804 3 is_stmt 1 view .LVU205
 805:../Drivers/STM32F4xx_HAL_Driver/Src/stm32f4xx_ll_fmc.c **** 
 806:../Drivers/STM32F4xx_HAL_Driver/Src/stm32f4xx_ll_fmc.c **** }
 588              		.loc 1 806 1 is_stmt 0 view .LVU206
 589 0034 0020     		movs	r0, #0
 590              	.LVL46:
 591              		.loc 1 806 1 view .LVU207
 592 0036 30BC     		pop	{r4, r5}
ARM GAS  /tmp/cc2u48vv.s 			page 26


 593              	.LCFI7:
 594              		.cfi_remember_state
 595              		.cfi_restore 5
 596              		.cfi_restore 4
 597              		.cfi_def_cfa_offset 0
 598 0038 7047     		bx	lr
 599              	.LVL47:
 600              	.L33:
 601              	.LCFI8:
 602              		.cfi_restore_state
 771:../Drivers/STM32F4xx_HAL_Driver/Src/stm32f4xx_ll_fmc.c ****   }
 603              		.loc 1 771 5 is_stmt 1 view .LVU208
 771:../Drivers/STM32F4xx_HAL_Driver/Src/stm32f4xx_ll_fmc.c ****   }
 604              		.loc 1 771 10 is_stmt 0 view .LVU209
 605 003a 0368     		ldr	r3, [r0]
 606              	.LVL48:
 771:../Drivers/STM32F4xx_HAL_Driver/Src/stm32f4xx_ll_fmc.c ****   }
 607              		.loc 1 771 10 view .LVU210
 608 003c E5E7     		b	.L29
 609              	.LVL49:
 610              	.L34:
 796:../Drivers/STM32F4xx_HAL_Driver/Src/stm32f4xx_ll_fmc.c ****   }
 611              		.loc 1 796 5 is_stmt 1 view .LVU211
 796:../Drivers/STM32F4xx_HAL_Driver/Src/stm32f4xx_ll_fmc.c ****   }
 612              		.loc 1 796 19 is_stmt 0 view .LVU212
 613 003e 0360     		str	r3, [r0]
 614 0040 F8E7     		b	.L31
 615              	.L36:
 616 0042 00BF     		.align	2
 617              	.L35:
 618 0044 8101F0FF 		.word	-1048191
 619              		.cfi_endproc
 620              	.LFE136:
 622              		.section	.text.FMC_NAND_CommonSpace_Timing_Init,"ax",%progbits
 623              		.align	1
 624              		.global	FMC_NAND_CommonSpace_Timing_Init
 625              		.syntax unified
 626              		.thumb
 627              		.thumb_func
 628              		.fpu fpv4-sp-d16
 630              	FMC_NAND_CommonSpace_Timing_Init:
 631              	.LVL50:
 632              	.LFB137:
 807:../Drivers/STM32F4xx_HAL_Driver/Src/stm32f4xx_ll_fmc.c **** 
 808:../Drivers/STM32F4xx_HAL_Driver/Src/stm32f4xx_ll_fmc.c **** /**
 809:../Drivers/STM32F4xx_HAL_Driver/Src/stm32f4xx_ll_fmc.c ****   * @brief  Initializes the FMC_NAND Common space Timing according to the specified
 810:../Drivers/STM32F4xx_HAL_Driver/Src/stm32f4xx_ll_fmc.c ****   *         parameters in the FMC_NAND_PCC_TimingTypeDef
 811:../Drivers/STM32F4xx_HAL_Driver/Src/stm32f4xx_ll_fmc.c ****   * @param  Device Pointer to NAND device instance
 812:../Drivers/STM32F4xx_HAL_Driver/Src/stm32f4xx_ll_fmc.c ****   * @param  Timing Pointer to NAND timing structure
 813:../Drivers/STM32F4xx_HAL_Driver/Src/stm32f4xx_ll_fmc.c ****   * @param  Bank NAND bank number   
 814:../Drivers/STM32F4xx_HAL_Driver/Src/stm32f4xx_ll_fmc.c ****   * @retval HAL status
 815:../Drivers/STM32F4xx_HAL_Driver/Src/stm32f4xx_ll_fmc.c ****   */
 816:../Drivers/STM32F4xx_HAL_Driver/Src/stm32f4xx_ll_fmc.c **** HAL_StatusTypeDef FMC_NAND_CommonSpace_Timing_Init(FMC_NAND_TypeDef *Device, FMC_NAND_PCC_TimingTyp
 817:../Drivers/STM32F4xx_HAL_Driver/Src/stm32f4xx_ll_fmc.c **** {
 633              		.loc 1 817 1 is_stmt 1 view -0
 634              		.cfi_startproc
 635              		@ args = 0, pretend = 0, frame = 0
ARM GAS  /tmp/cc2u48vv.s 			page 27


 636              		@ frame_needed = 0, uses_anonymous_args = 0
 637              		@ link register save eliminated.
 638              		.loc 1 817 1 is_stmt 0 view .LVU214
 639 0000 10B4     		push	{r4}
 640              	.LCFI9:
 641              		.cfi_def_cfa_offset 4
 642              		.cfi_offset 4, -4
 818:../Drivers/STM32F4xx_HAL_Driver/Src/stm32f4xx_ll_fmc.c ****   uint32_t tmpr = 0U;  
 643              		.loc 1 818 3 is_stmt 1 view .LVU215
 644              	.LVL51:
 819:../Drivers/STM32F4xx_HAL_Driver/Src/stm32f4xx_ll_fmc.c ****   
 820:../Drivers/STM32F4xx_HAL_Driver/Src/stm32f4xx_ll_fmc.c ****   /* Check the parameters */
 821:../Drivers/STM32F4xx_HAL_Driver/Src/stm32f4xx_ll_fmc.c ****   assert_param(IS_FMC_NAND_DEVICE(Device));
 645              		.loc 1 821 3 view .LVU216
 822:../Drivers/STM32F4xx_HAL_Driver/Src/stm32f4xx_ll_fmc.c ****   assert_param(IS_FMC_SETUP_TIME(Timing->SetupTime));
 646              		.loc 1 822 3 view .LVU217
 823:../Drivers/STM32F4xx_HAL_Driver/Src/stm32f4xx_ll_fmc.c ****   assert_param(IS_FMC_WAIT_TIME(Timing->WaitSetupTime));
 647              		.loc 1 823 3 view .LVU218
 824:../Drivers/STM32F4xx_HAL_Driver/Src/stm32f4xx_ll_fmc.c ****   assert_param(IS_FMC_HOLD_TIME(Timing->HoldSetupTime));
 648              		.loc 1 824 3 view .LVU219
 825:../Drivers/STM32F4xx_HAL_Driver/Src/stm32f4xx_ll_fmc.c ****   assert_param(IS_FMC_HIZ_TIME(Timing->HiZSetupTime));
 649              		.loc 1 825 3 view .LVU220
 826:../Drivers/STM32F4xx_HAL_Driver/Src/stm32f4xx_ll_fmc.c ****   assert_param(IS_FMC_NAND_BANK(Bank));
 650              		.loc 1 826 3 view .LVU221
 827:../Drivers/STM32F4xx_HAL_Driver/Src/stm32f4xx_ll_fmc.c ****   
 828:../Drivers/STM32F4xx_HAL_Driver/Src/stm32f4xx_ll_fmc.c ****   if(Bank == FMC_NAND_BANK2)
 651              		.loc 1 828 3 view .LVU222
 652              		.loc 1 828 5 is_stmt 0 view .LVU223
 653 0002 102A     		cmp	r2, #16
 654 0004 11D0     		beq	.L43
 829:../Drivers/STM32F4xx_HAL_Driver/Src/stm32f4xx_ll_fmc.c ****   {
 830:../Drivers/STM32F4xx_HAL_Driver/Src/stm32f4xx_ll_fmc.c ****     /* Get the NAND bank 2 register value */
 831:../Drivers/STM32F4xx_HAL_Driver/Src/stm32f4xx_ll_fmc.c ****     tmpr = Device->PMEM2;
 832:../Drivers/STM32F4xx_HAL_Driver/Src/stm32f4xx_ll_fmc.c ****   }
 833:../Drivers/STM32F4xx_HAL_Driver/Src/stm32f4xx_ll_fmc.c ****   else
 834:../Drivers/STM32F4xx_HAL_Driver/Src/stm32f4xx_ll_fmc.c ****   {
 835:../Drivers/STM32F4xx_HAL_Driver/Src/stm32f4xx_ll_fmc.c ****     /* Get the NAND bank 3 register value */
 836:../Drivers/STM32F4xx_HAL_Driver/Src/stm32f4xx_ll_fmc.c ****     tmpr = Device->PMEM3;
 655              		.loc 1 836 5 is_stmt 1 view .LVU224
 656              		.loc 1 836 10 is_stmt 0 view .LVU225
 657 0006 836A     		ldr	r3, [r0, #40]
 658              	.LVL52:
 659              	.L39:
 837:../Drivers/STM32F4xx_HAL_Driver/Src/stm32f4xx_ll_fmc.c ****   } 
 838:../Drivers/STM32F4xx_HAL_Driver/Src/stm32f4xx_ll_fmc.c ****   
 839:../Drivers/STM32F4xx_HAL_Driver/Src/stm32f4xx_ll_fmc.c ****   /* Clear MEMSETx, MEMWAITx, MEMHOLDx and MEMHIZx bits */
 840:../Drivers/STM32F4xx_HAL_Driver/Src/stm32f4xx_ll_fmc.c ****   tmpr &= ((uint32_t)~(FMC_PMEM2_MEMSET2  | FMC_PMEM2_MEMWAIT2 | FMC_PMEM2_MEMHOLD2 | \
 660              		.loc 1 840 3 is_stmt 1 view .LVU226
 841:../Drivers/STM32F4xx_HAL_Driver/Src/stm32f4xx_ll_fmc.c ****                        FMC_PMEM2_MEMHIZ2)); 
 842:../Drivers/STM32F4xx_HAL_Driver/Src/stm32f4xx_ll_fmc.c ****   
 843:../Drivers/STM32F4xx_HAL_Driver/Src/stm32f4xx_ll_fmc.c ****   /* Set FMC_NAND device timing parameters */
 844:../Drivers/STM32F4xx_HAL_Driver/Src/stm32f4xx_ll_fmc.c ****   tmpr |= (uint32_t)(Timing->SetupTime                     |\
 661              		.loc 1 844 3 view .LVU227
 662              		.loc 1 844 28 is_stmt 0 view .LVU228
 663 0008 0B68     		ldr	r3, [r1]
 664              		.loc 1 844 60 view .LVU229
 665 000a 4C68     		ldr	r4, [r1, #4]
ARM GAS  /tmp/cc2u48vv.s 			page 28


 666 000c 43EA0423 		orr	r3, r3, r4, lsl #8
 845:../Drivers/STM32F4xx_HAL_Driver/Src/stm32f4xx_ll_fmc.c ****                        ((Timing->WaitSetupTime) << 8U)     |\
 667              		.loc 1 845 60 view .LVU230
 668 0010 8C68     		ldr	r4, [r1, #8]
 669 0012 43EA0443 		orr	r3, r3, r4, lsl #16
 846:../Drivers/STM32F4xx_HAL_Driver/Src/stm32f4xx_ll_fmc.c ****                        ((Timing->HoldSetupTime) << 16U)    |\
 847:../Drivers/STM32F4xx_HAL_Driver/Src/stm32f4xx_ll_fmc.c ****                        ((Timing->HiZSetupTime) << 24U)
 670              		.loc 1 847 32 view .LVU231
 671 0016 C968     		ldr	r1, [r1, #12]
 672              	.LVL53:
 846:../Drivers/STM32F4xx_HAL_Driver/Src/stm32f4xx_ll_fmc.c ****                        ((Timing->HoldSetupTime) << 16U)    |\
 673              		.loc 1 846 60 view .LVU232
 674 0018 43EA0163 		orr	r3, r3, r1, lsl #24
 675              	.LVL54:
 848:../Drivers/STM32F4xx_HAL_Driver/Src/stm32f4xx_ll_fmc.c ****                        );
 849:../Drivers/STM32F4xx_HAL_Driver/Src/stm32f4xx_ll_fmc.c ****                             
 850:../Drivers/STM32F4xx_HAL_Driver/Src/stm32f4xx_ll_fmc.c ****   if(Bank == FMC_NAND_BANK2)
 676              		.loc 1 850 3 is_stmt 1 view .LVU233
 677              		.loc 1 850 5 is_stmt 0 view .LVU234
 678 001c 102A     		cmp	r2, #16
 679 001e 06D0     		beq	.L44
 851:../Drivers/STM32F4xx_HAL_Driver/Src/stm32f4xx_ll_fmc.c ****   {
 852:../Drivers/STM32F4xx_HAL_Driver/Src/stm32f4xx_ll_fmc.c ****     /* NAND bank 2 registers configuration */
 853:../Drivers/STM32F4xx_HAL_Driver/Src/stm32f4xx_ll_fmc.c ****     Device->PMEM2 = tmpr;
 854:../Drivers/STM32F4xx_HAL_Driver/Src/stm32f4xx_ll_fmc.c ****   }
 855:../Drivers/STM32F4xx_HAL_Driver/Src/stm32f4xx_ll_fmc.c ****   else
 856:../Drivers/STM32F4xx_HAL_Driver/Src/stm32f4xx_ll_fmc.c ****   {
 857:../Drivers/STM32F4xx_HAL_Driver/Src/stm32f4xx_ll_fmc.c ****     /* NAND bank 3 registers configuration */
 858:../Drivers/STM32F4xx_HAL_Driver/Src/stm32f4xx_ll_fmc.c ****     Device->PMEM3 = tmpr;
 680              		.loc 1 858 5 is_stmt 1 view .LVU235
 681              		.loc 1 858 19 is_stmt 0 view .LVU236
 682 0020 8362     		str	r3, [r0, #40]
 683              	.L41:
 859:../Drivers/STM32F4xx_HAL_Driver/Src/stm32f4xx_ll_fmc.c ****   }  
 860:../Drivers/STM32F4xx_HAL_Driver/Src/stm32f4xx_ll_fmc.c ****   
 861:../Drivers/STM32F4xx_HAL_Driver/Src/stm32f4xx_ll_fmc.c ****   return HAL_OK;  
 684              		.loc 1 861 3 is_stmt 1 view .LVU237
 862:../Drivers/STM32F4xx_HAL_Driver/Src/stm32f4xx_ll_fmc.c **** }
 685              		.loc 1 862 1 is_stmt 0 view .LVU238
 686 0022 0020     		movs	r0, #0
 687              	.LVL55:
 688              		.loc 1 862 1 view .LVU239
 689 0024 5DF8044B 		ldr	r4, [sp], #4
 690              	.LCFI10:
 691              		.cfi_remember_state
 692              		.cfi_restore 4
 693              		.cfi_def_cfa_offset 0
 694 0028 7047     		bx	lr
 695              	.LVL56:
 696              	.L43:
 697              	.LCFI11:
 698              		.cfi_restore_state
 831:../Drivers/STM32F4xx_HAL_Driver/Src/stm32f4xx_ll_fmc.c ****   }
 699              		.loc 1 831 5 is_stmt 1 view .LVU240
 831:../Drivers/STM32F4xx_HAL_Driver/Src/stm32f4xx_ll_fmc.c ****   }
 700              		.loc 1 831 10 is_stmt 0 view .LVU241
 701 002a 8368     		ldr	r3, [r0, #8]
ARM GAS  /tmp/cc2u48vv.s 			page 29


 702              	.LVL57:
 831:../Drivers/STM32F4xx_HAL_Driver/Src/stm32f4xx_ll_fmc.c ****   }
 703              		.loc 1 831 10 view .LVU242
 704 002c ECE7     		b	.L39
 705              	.LVL58:
 706              	.L44:
 853:../Drivers/STM32F4xx_HAL_Driver/Src/stm32f4xx_ll_fmc.c ****   }
 707              		.loc 1 853 5 is_stmt 1 view .LVU243
 853:../Drivers/STM32F4xx_HAL_Driver/Src/stm32f4xx_ll_fmc.c ****   }
 708              		.loc 1 853 19 is_stmt 0 view .LVU244
 709 002e 8360     		str	r3, [r0, #8]
 710 0030 F7E7     		b	.L41
 711              		.cfi_endproc
 712              	.LFE137:
 714              		.section	.text.FMC_NAND_AttributeSpace_Timing_Init,"ax",%progbits
 715              		.align	1
 716              		.global	FMC_NAND_AttributeSpace_Timing_Init
 717              		.syntax unified
 718              		.thumb
 719              		.thumb_func
 720              		.fpu fpv4-sp-d16
 722              	FMC_NAND_AttributeSpace_Timing_Init:
 723              	.LVL59:
 724              	.LFB138:
 863:../Drivers/STM32F4xx_HAL_Driver/Src/stm32f4xx_ll_fmc.c **** 
 864:../Drivers/STM32F4xx_HAL_Driver/Src/stm32f4xx_ll_fmc.c **** /**
 865:../Drivers/STM32F4xx_HAL_Driver/Src/stm32f4xx_ll_fmc.c ****   * @brief  Initializes the FMC_NAND Attribute space Timing according to the specified
 866:../Drivers/STM32F4xx_HAL_Driver/Src/stm32f4xx_ll_fmc.c ****   *         parameters in the FMC_NAND_PCC_TimingTypeDef
 867:../Drivers/STM32F4xx_HAL_Driver/Src/stm32f4xx_ll_fmc.c ****   * @param  Device Pointer to NAND device instance
 868:../Drivers/STM32F4xx_HAL_Driver/Src/stm32f4xx_ll_fmc.c ****   * @param  Timing Pointer to NAND timing structure
 869:../Drivers/STM32F4xx_HAL_Driver/Src/stm32f4xx_ll_fmc.c ****   * @param  Bank NAND bank number 
 870:../Drivers/STM32F4xx_HAL_Driver/Src/stm32f4xx_ll_fmc.c ****   * @retval HAL status
 871:../Drivers/STM32F4xx_HAL_Driver/Src/stm32f4xx_ll_fmc.c ****   */
 872:../Drivers/STM32F4xx_HAL_Driver/Src/stm32f4xx_ll_fmc.c **** HAL_StatusTypeDef FMC_NAND_AttributeSpace_Timing_Init(FMC_NAND_TypeDef *Device, FMC_NAND_PCC_Timing
 873:../Drivers/STM32F4xx_HAL_Driver/Src/stm32f4xx_ll_fmc.c **** {
 725              		.loc 1 873 1 is_stmt 1 view -0
 726              		.cfi_startproc
 727              		@ args = 0, pretend = 0, frame = 0
 728              		@ frame_needed = 0, uses_anonymous_args = 0
 729              		@ link register save eliminated.
 730              		.loc 1 873 1 is_stmt 0 view .LVU246
 731 0000 10B4     		push	{r4}
 732              	.LCFI12:
 733              		.cfi_def_cfa_offset 4
 734              		.cfi_offset 4, -4
 874:../Drivers/STM32F4xx_HAL_Driver/Src/stm32f4xx_ll_fmc.c ****   uint32_t tmpr = 0U;  
 735              		.loc 1 874 3 is_stmt 1 view .LVU247
 736              	.LVL60:
 875:../Drivers/STM32F4xx_HAL_Driver/Src/stm32f4xx_ll_fmc.c ****   
 876:../Drivers/STM32F4xx_HAL_Driver/Src/stm32f4xx_ll_fmc.c ****   /* Check the parameters */ 
 877:../Drivers/STM32F4xx_HAL_Driver/Src/stm32f4xx_ll_fmc.c ****   assert_param(IS_FMC_NAND_DEVICE(Device)); 
 737              		.loc 1 877 3 view .LVU248
 878:../Drivers/STM32F4xx_HAL_Driver/Src/stm32f4xx_ll_fmc.c ****   assert_param(IS_FMC_SETUP_TIME(Timing->SetupTime));
 738              		.loc 1 878 3 view .LVU249
 879:../Drivers/STM32F4xx_HAL_Driver/Src/stm32f4xx_ll_fmc.c ****   assert_param(IS_FMC_WAIT_TIME(Timing->WaitSetupTime));
 739              		.loc 1 879 3 view .LVU250
 880:../Drivers/STM32F4xx_HAL_Driver/Src/stm32f4xx_ll_fmc.c ****   assert_param(IS_FMC_HOLD_TIME(Timing->HoldSetupTime));
ARM GAS  /tmp/cc2u48vv.s 			page 30


 740              		.loc 1 880 3 view .LVU251
 881:../Drivers/STM32F4xx_HAL_Driver/Src/stm32f4xx_ll_fmc.c ****   assert_param(IS_FMC_HIZ_TIME(Timing->HiZSetupTime));
 741              		.loc 1 881 3 view .LVU252
 882:../Drivers/STM32F4xx_HAL_Driver/Src/stm32f4xx_ll_fmc.c ****   assert_param(IS_FMC_NAND_BANK(Bank));
 742              		.loc 1 882 3 view .LVU253
 883:../Drivers/STM32F4xx_HAL_Driver/Src/stm32f4xx_ll_fmc.c ****   
 884:../Drivers/STM32F4xx_HAL_Driver/Src/stm32f4xx_ll_fmc.c ****   if(Bank == FMC_NAND_BANK2)
 743              		.loc 1 884 3 view .LVU254
 744              		.loc 1 884 5 is_stmt 0 view .LVU255
 745 0002 102A     		cmp	r2, #16
 746 0004 11D0     		beq	.L51
 885:../Drivers/STM32F4xx_HAL_Driver/Src/stm32f4xx_ll_fmc.c ****   {
 886:../Drivers/STM32F4xx_HAL_Driver/Src/stm32f4xx_ll_fmc.c ****     /* Get the NAND bank 2 register value */
 887:../Drivers/STM32F4xx_HAL_Driver/Src/stm32f4xx_ll_fmc.c ****     tmpr = Device->PATT2;
 888:../Drivers/STM32F4xx_HAL_Driver/Src/stm32f4xx_ll_fmc.c ****   }
 889:../Drivers/STM32F4xx_HAL_Driver/Src/stm32f4xx_ll_fmc.c ****   else
 890:../Drivers/STM32F4xx_HAL_Driver/Src/stm32f4xx_ll_fmc.c ****   {
 891:../Drivers/STM32F4xx_HAL_Driver/Src/stm32f4xx_ll_fmc.c ****     /* Get the NAND bank 3 register value */
 892:../Drivers/STM32F4xx_HAL_Driver/Src/stm32f4xx_ll_fmc.c ****     tmpr = Device->PATT3;
 747              		.loc 1 892 5 is_stmt 1 view .LVU256
 748              		.loc 1 892 10 is_stmt 0 view .LVU257
 749 0006 C36A     		ldr	r3, [r0, #44]
 750              	.LVL61:
 751              	.L47:
 893:../Drivers/STM32F4xx_HAL_Driver/Src/stm32f4xx_ll_fmc.c ****   } 
 894:../Drivers/STM32F4xx_HAL_Driver/Src/stm32f4xx_ll_fmc.c ****   
 895:../Drivers/STM32F4xx_HAL_Driver/Src/stm32f4xx_ll_fmc.c ****   /* Clear ATTSETx, ATTWAITx, ATTHOLDx and ATTHIZx bits */
 896:../Drivers/STM32F4xx_HAL_Driver/Src/stm32f4xx_ll_fmc.c ****   tmpr &= ((uint32_t)~(FMC_PATT2_ATTSET2  | FMC_PATT2_ATTWAIT2 | FMC_PATT2_ATTHOLD2 | \
 752              		.loc 1 896 3 is_stmt 1 view .LVU258
 897:../Drivers/STM32F4xx_HAL_Driver/Src/stm32f4xx_ll_fmc.c ****                        FMC_PATT2_ATTHIZ2));
 898:../Drivers/STM32F4xx_HAL_Driver/Src/stm32f4xx_ll_fmc.c ****   
 899:../Drivers/STM32F4xx_HAL_Driver/Src/stm32f4xx_ll_fmc.c ****   /* Set FMC_NAND device timing parameters */
 900:../Drivers/STM32F4xx_HAL_Driver/Src/stm32f4xx_ll_fmc.c ****   tmpr |= (uint32_t)(Timing->SetupTime                  |\
 753              		.loc 1 900 3 view .LVU259
 754              		.loc 1 900 28 is_stmt 0 view .LVU260
 755 0008 0B68     		ldr	r3, [r1]
 756              		.loc 1 900 57 view .LVU261
 757 000a 4C68     		ldr	r4, [r1, #4]
 758 000c 43EA0423 		orr	r3, r3, r4, lsl #8
 901:../Drivers/STM32F4xx_HAL_Driver/Src/stm32f4xx_ll_fmc.c ****                    ((Timing->WaitSetupTime) << 8U)      |\
 759              		.loc 1 901 57 view .LVU262
 760 0010 8C68     		ldr	r4, [r1, #8]
 761 0012 43EA0443 		orr	r3, r3, r4, lsl #16
 902:../Drivers/STM32F4xx_HAL_Driver/Src/stm32f4xx_ll_fmc.c ****                    ((Timing->HoldSetupTime) << 16U)     |\
 903:../Drivers/STM32F4xx_HAL_Driver/Src/stm32f4xx_ll_fmc.c ****                    ((Timing->HiZSetupTime) << 24U));
 762              		.loc 1 903 28 view .LVU263
 763 0016 C968     		ldr	r1, [r1, #12]
 764              	.LVL62:
 902:../Drivers/STM32F4xx_HAL_Driver/Src/stm32f4xx_ll_fmc.c ****                    ((Timing->HoldSetupTime) << 16U)     |\
 765              		.loc 1 902 57 view .LVU264
 766 0018 43EA0163 		orr	r3, r3, r1, lsl #24
 767              	.LVL63:
 904:../Drivers/STM32F4xx_HAL_Driver/Src/stm32f4xx_ll_fmc.c ****                        
 905:../Drivers/STM32F4xx_HAL_Driver/Src/stm32f4xx_ll_fmc.c ****   if(Bank == FMC_NAND_BANK2)
 768              		.loc 1 905 3 is_stmt 1 view .LVU265
 769              		.loc 1 905 5 is_stmt 0 view .LVU266
 770 001c 102A     		cmp	r2, #16
ARM GAS  /tmp/cc2u48vv.s 			page 31


 771 001e 06D0     		beq	.L52
 906:../Drivers/STM32F4xx_HAL_Driver/Src/stm32f4xx_ll_fmc.c ****   {
 907:../Drivers/STM32F4xx_HAL_Driver/Src/stm32f4xx_ll_fmc.c ****     /* NAND bank 2 registers configuration */
 908:../Drivers/STM32F4xx_HAL_Driver/Src/stm32f4xx_ll_fmc.c ****     Device->PATT2 = tmpr;
 909:../Drivers/STM32F4xx_HAL_Driver/Src/stm32f4xx_ll_fmc.c ****   }
 910:../Drivers/STM32F4xx_HAL_Driver/Src/stm32f4xx_ll_fmc.c ****   else
 911:../Drivers/STM32F4xx_HAL_Driver/Src/stm32f4xx_ll_fmc.c ****   {
 912:../Drivers/STM32F4xx_HAL_Driver/Src/stm32f4xx_ll_fmc.c ****     /* NAND bank 3 registers configuration */
 913:../Drivers/STM32F4xx_HAL_Driver/Src/stm32f4xx_ll_fmc.c ****     Device->PATT3 = tmpr;
 772              		.loc 1 913 5 is_stmt 1 view .LVU267
 773              		.loc 1 913 19 is_stmt 0 view .LVU268
 774 0020 C362     		str	r3, [r0, #44]
 775              	.L49:
 914:../Drivers/STM32F4xx_HAL_Driver/Src/stm32f4xx_ll_fmc.c ****   }   
 915:../Drivers/STM32F4xx_HAL_Driver/Src/stm32f4xx_ll_fmc.c ****   
 916:../Drivers/STM32F4xx_HAL_Driver/Src/stm32f4xx_ll_fmc.c ****   return HAL_OK;
 776              		.loc 1 916 3 is_stmt 1 view .LVU269
 917:../Drivers/STM32F4xx_HAL_Driver/Src/stm32f4xx_ll_fmc.c **** }
 777              		.loc 1 917 1 is_stmt 0 view .LVU270
 778 0022 0020     		movs	r0, #0
 779              	.LVL64:
 780              		.loc 1 917 1 view .LVU271
 781 0024 5DF8044B 		ldr	r4, [sp], #4
 782              	.LCFI13:
 783              		.cfi_remember_state
 784              		.cfi_restore 4
 785              		.cfi_def_cfa_offset 0
 786 0028 7047     		bx	lr
 787              	.LVL65:
 788              	.L51:
 789              	.LCFI14:
 790              		.cfi_restore_state
 887:../Drivers/STM32F4xx_HAL_Driver/Src/stm32f4xx_ll_fmc.c ****   }
 791              		.loc 1 887 5 is_stmt 1 view .LVU272
 887:../Drivers/STM32F4xx_HAL_Driver/Src/stm32f4xx_ll_fmc.c ****   }
 792              		.loc 1 887 10 is_stmt 0 view .LVU273
 793 002a C368     		ldr	r3, [r0, #12]
 794              	.LVL66:
 887:../Drivers/STM32F4xx_HAL_Driver/Src/stm32f4xx_ll_fmc.c ****   }
 795              		.loc 1 887 10 view .LVU274
 796 002c ECE7     		b	.L47
 797              	.LVL67:
 798              	.L52:
 908:../Drivers/STM32F4xx_HAL_Driver/Src/stm32f4xx_ll_fmc.c ****   }
 799              		.loc 1 908 5 is_stmt 1 view .LVU275
 908:../Drivers/STM32F4xx_HAL_Driver/Src/stm32f4xx_ll_fmc.c ****   }
 800              		.loc 1 908 19 is_stmt 0 view .LVU276
 801 002e C360     		str	r3, [r0, #12]
 802 0030 F7E7     		b	.L49
 803              		.cfi_endproc
 804              	.LFE138:
 806              		.section	.text.FMC_NAND_DeInit,"ax",%progbits
 807              		.align	1
 808              		.global	FMC_NAND_DeInit
 809              		.syntax unified
 810              		.thumb
 811              		.thumb_func
ARM GAS  /tmp/cc2u48vv.s 			page 32


 812              		.fpu fpv4-sp-d16
 814              	FMC_NAND_DeInit:
 815              	.LVL68:
 816              	.LFB139:
 918:../Drivers/STM32F4xx_HAL_Driver/Src/stm32f4xx_ll_fmc.c **** 
 919:../Drivers/STM32F4xx_HAL_Driver/Src/stm32f4xx_ll_fmc.c **** /**
 920:../Drivers/STM32F4xx_HAL_Driver/Src/stm32f4xx_ll_fmc.c ****   * @brief  DeInitializes the FMC_NAND device 
 921:../Drivers/STM32F4xx_HAL_Driver/Src/stm32f4xx_ll_fmc.c ****   * @param  Device Pointer to NAND device instance
 922:../Drivers/STM32F4xx_HAL_Driver/Src/stm32f4xx_ll_fmc.c ****   * @param  Bank NAND bank number
 923:../Drivers/STM32F4xx_HAL_Driver/Src/stm32f4xx_ll_fmc.c ****   * @retval HAL status
 924:../Drivers/STM32F4xx_HAL_Driver/Src/stm32f4xx_ll_fmc.c ****   */
 925:../Drivers/STM32F4xx_HAL_Driver/Src/stm32f4xx_ll_fmc.c **** HAL_StatusTypeDef FMC_NAND_DeInit(FMC_NAND_TypeDef *Device, uint32_t Bank)
 926:../Drivers/STM32F4xx_HAL_Driver/Src/stm32f4xx_ll_fmc.c **** {
 817              		.loc 1 926 1 is_stmt 1 view -0
 818              		.cfi_startproc
 819              		@ args = 0, pretend = 0, frame = 0
 820              		@ frame_needed = 0, uses_anonymous_args = 0
 821              		@ link register save eliminated.
 927:../Drivers/STM32F4xx_HAL_Driver/Src/stm32f4xx_ll_fmc.c ****   /* Check the parameters */ 
 928:../Drivers/STM32F4xx_HAL_Driver/Src/stm32f4xx_ll_fmc.c ****   assert_param(IS_FMC_NAND_DEVICE(Device)); 
 822              		.loc 1 928 3 view .LVU278
 929:../Drivers/STM32F4xx_HAL_Driver/Src/stm32f4xx_ll_fmc.c ****   assert_param(IS_FMC_NAND_BANK(Bank));
 823              		.loc 1 929 3 view .LVU279
 930:../Drivers/STM32F4xx_HAL_Driver/Src/stm32f4xx_ll_fmc.c ****       
 931:../Drivers/STM32F4xx_HAL_Driver/Src/stm32f4xx_ll_fmc.c ****   /* Disable the NAND Bank */
 932:../Drivers/STM32F4xx_HAL_Driver/Src/stm32f4xx_ll_fmc.c ****   __FMC_NAND_DISABLE(Device, Bank);
 824              		.loc 1 932 3 view .LVU280
 825 0000 1029     		cmp	r1, #16
 826 0002 0FD0     		beq	.L58
 827              		.loc 1 932 3 is_stmt 0 discriminator 2 view .LVU281
 828 0004 036A     		ldr	r3, [r0, #32]
 829 0006 23F00403 		bic	r3, r3, #4
 830 000a 0362     		str	r3, [r0, #32]
 831              	.L55:
 933:../Drivers/STM32F4xx_HAL_Driver/Src/stm32f4xx_ll_fmc.c ****  
 934:../Drivers/STM32F4xx_HAL_Driver/Src/stm32f4xx_ll_fmc.c ****   /* De-initialize the NAND Bank */
 935:../Drivers/STM32F4xx_HAL_Driver/Src/stm32f4xx_ll_fmc.c ****   if(Bank == FMC_NAND_BANK2)
 832              		.loc 1 935 3 is_stmt 1 view .LVU282
 833              		.loc 1 935 5 is_stmt 0 view .LVU283
 834 000c 1029     		cmp	r1, #16
 835 000e 0ED0     		beq	.L59
 936:../Drivers/STM32F4xx_HAL_Driver/Src/stm32f4xx_ll_fmc.c ****   {
 937:../Drivers/STM32F4xx_HAL_Driver/Src/stm32f4xx_ll_fmc.c ****     /* Set the FMC_NAND_BANK2 registers to their reset values */
 938:../Drivers/STM32F4xx_HAL_Driver/Src/stm32f4xx_ll_fmc.c ****     Device->PCR2  = 0x00000018U;
 939:../Drivers/STM32F4xx_HAL_Driver/Src/stm32f4xx_ll_fmc.c ****     Device->SR2   = 0x00000040U;
 940:../Drivers/STM32F4xx_HAL_Driver/Src/stm32f4xx_ll_fmc.c ****     Device->PMEM2 = 0xFCFCFCFCU;
 941:../Drivers/STM32F4xx_HAL_Driver/Src/stm32f4xx_ll_fmc.c ****     Device->PATT2 = 0xFCFCFCFCU;  
 942:../Drivers/STM32F4xx_HAL_Driver/Src/stm32f4xx_ll_fmc.c ****   }
 943:../Drivers/STM32F4xx_HAL_Driver/Src/stm32f4xx_ll_fmc.c ****   /* FMC_Bank3_NAND */  
 944:../Drivers/STM32F4xx_HAL_Driver/Src/stm32f4xx_ll_fmc.c ****   else
 945:../Drivers/STM32F4xx_HAL_Driver/Src/stm32f4xx_ll_fmc.c ****   {
 946:../Drivers/STM32F4xx_HAL_Driver/Src/stm32f4xx_ll_fmc.c ****     /* Set the FMC_NAND_BANK3 registers to their reset values */
 947:../Drivers/STM32F4xx_HAL_Driver/Src/stm32f4xx_ll_fmc.c ****     Device->PCR3  = 0x00000018U;
 836              		.loc 1 947 5 is_stmt 1 view .LVU284
 837              		.loc 1 947 19 is_stmt 0 view .LVU285
 838 0010 1823     		movs	r3, #24
 839 0012 0362     		str	r3, [r0, #32]
ARM GAS  /tmp/cc2u48vv.s 			page 33


 948:../Drivers/STM32F4xx_HAL_Driver/Src/stm32f4xx_ll_fmc.c ****     Device->SR3   = 0x00000040U;
 840              		.loc 1 948 5 is_stmt 1 view .LVU286
 841              		.loc 1 948 19 is_stmt 0 view .LVU287
 842 0014 4023     		movs	r3, #64
 843 0016 4362     		str	r3, [r0, #36]
 949:../Drivers/STM32F4xx_HAL_Driver/Src/stm32f4xx_ll_fmc.c ****     Device->PMEM3 = 0xFCFCFCFCU;
 844              		.loc 1 949 5 is_stmt 1 view .LVU288
 845              		.loc 1 949 19 is_stmt 0 view .LVU289
 846 0018 4FF0FC33 		mov	r3, #-50529028
 847 001c 8362     		str	r3, [r0, #40]
 950:../Drivers/STM32F4xx_HAL_Driver/Src/stm32f4xx_ll_fmc.c ****     Device->PATT3 = 0xFCFCFCFCU; 
 848              		.loc 1 950 5 is_stmt 1 view .LVU290
 849              		.loc 1 950 19 is_stmt 0 view .LVU291
 850 001e C362     		str	r3, [r0, #44]
 851              	.L57:
 951:../Drivers/STM32F4xx_HAL_Driver/Src/stm32f4xx_ll_fmc.c ****   }
 952:../Drivers/STM32F4xx_HAL_Driver/Src/stm32f4xx_ll_fmc.c ****   
 953:../Drivers/STM32F4xx_HAL_Driver/Src/stm32f4xx_ll_fmc.c ****   return HAL_OK;
 852              		.loc 1 953 3 is_stmt 1 view .LVU292
 954:../Drivers/STM32F4xx_HAL_Driver/Src/stm32f4xx_ll_fmc.c **** }
 853              		.loc 1 954 1 is_stmt 0 view .LVU293
 854 0020 0020     		movs	r0, #0
 855              	.LVL69:
 856              		.loc 1 954 1 view .LVU294
 857 0022 7047     		bx	lr
 858              	.LVL70:
 859              	.L58:
 932:../Drivers/STM32F4xx_HAL_Driver/Src/stm32f4xx_ll_fmc.c ****  
 860              		.loc 1 932 3 discriminator 1 view .LVU295
 861 0024 0368     		ldr	r3, [r0]
 862 0026 23F00403 		bic	r3, r3, #4
 863 002a 0360     		str	r3, [r0]
 864 002c EEE7     		b	.L55
 865              	.L59:
 938:../Drivers/STM32F4xx_HAL_Driver/Src/stm32f4xx_ll_fmc.c ****     Device->SR2   = 0x00000040U;
 866              		.loc 1 938 5 is_stmt 1 view .LVU296
 938:../Drivers/STM32F4xx_HAL_Driver/Src/stm32f4xx_ll_fmc.c ****     Device->SR2   = 0x00000040U;
 867              		.loc 1 938 19 is_stmt 0 view .LVU297
 868 002e 1823     		movs	r3, #24
 869 0030 0360     		str	r3, [r0]
 939:../Drivers/STM32F4xx_HAL_Driver/Src/stm32f4xx_ll_fmc.c ****     Device->PMEM2 = 0xFCFCFCFCU;
 870              		.loc 1 939 5 is_stmt 1 view .LVU298
 939:../Drivers/STM32F4xx_HAL_Driver/Src/stm32f4xx_ll_fmc.c ****     Device->PMEM2 = 0xFCFCFCFCU;
 871              		.loc 1 939 19 is_stmt 0 view .LVU299
 872 0032 4023     		movs	r3, #64
 873 0034 4360     		str	r3, [r0, #4]
 940:../Drivers/STM32F4xx_HAL_Driver/Src/stm32f4xx_ll_fmc.c ****     Device->PATT2 = 0xFCFCFCFCU;  
 874              		.loc 1 940 5 is_stmt 1 view .LVU300
 940:../Drivers/STM32F4xx_HAL_Driver/Src/stm32f4xx_ll_fmc.c ****     Device->PATT2 = 0xFCFCFCFCU;  
 875              		.loc 1 940 19 is_stmt 0 view .LVU301
 876 0036 4FF0FC33 		mov	r3, #-50529028
 877 003a 8360     		str	r3, [r0, #8]
 941:../Drivers/STM32F4xx_HAL_Driver/Src/stm32f4xx_ll_fmc.c ****   }
 878              		.loc 1 941 5 is_stmt 1 view .LVU302
 941:../Drivers/STM32F4xx_HAL_Driver/Src/stm32f4xx_ll_fmc.c ****   }
 879              		.loc 1 941 19 is_stmt 0 view .LVU303
 880 003c C360     		str	r3, [r0, #12]
ARM GAS  /tmp/cc2u48vv.s 			page 34


 881 003e EFE7     		b	.L57
 882              		.cfi_endproc
 883              	.LFE139:
 885              		.section	.text.FMC_NAND_ECC_Enable,"ax",%progbits
 886              		.align	1
 887              		.global	FMC_NAND_ECC_Enable
 888              		.syntax unified
 889              		.thumb
 890              		.thumb_func
 891              		.fpu fpv4-sp-d16
 893              	FMC_NAND_ECC_Enable:
 894              	.LVL71:
 895              	.LFB140:
 955:../Drivers/STM32F4xx_HAL_Driver/Src/stm32f4xx_ll_fmc.c **** 
 956:../Drivers/STM32F4xx_HAL_Driver/Src/stm32f4xx_ll_fmc.c **** /**
 957:../Drivers/STM32F4xx_HAL_Driver/Src/stm32f4xx_ll_fmc.c ****   * @}
 958:../Drivers/STM32F4xx_HAL_Driver/Src/stm32f4xx_ll_fmc.c ****   */
 959:../Drivers/STM32F4xx_HAL_Driver/Src/stm32f4xx_ll_fmc.c **** 
 960:../Drivers/STM32F4xx_HAL_Driver/Src/stm32f4xx_ll_fmc.c **** /** @addtogroup FMC_LL_NAND_Private_Functions_Group2
 961:../Drivers/STM32F4xx_HAL_Driver/Src/stm32f4xx_ll_fmc.c ****   *  @brief   management functions 
 962:../Drivers/STM32F4xx_HAL_Driver/Src/stm32f4xx_ll_fmc.c ****   *
 963:../Drivers/STM32F4xx_HAL_Driver/Src/stm32f4xx_ll_fmc.c **** @verbatim   
 964:../Drivers/STM32F4xx_HAL_Driver/Src/stm32f4xx_ll_fmc.c ****   ==============================================================================
 965:../Drivers/STM32F4xx_HAL_Driver/Src/stm32f4xx_ll_fmc.c ****                        ##### FMC_NAND Control functions #####
 966:../Drivers/STM32F4xx_HAL_Driver/Src/stm32f4xx_ll_fmc.c ****   ==============================================================================  
 967:../Drivers/STM32F4xx_HAL_Driver/Src/stm32f4xx_ll_fmc.c ****   [..]
 968:../Drivers/STM32F4xx_HAL_Driver/Src/stm32f4xx_ll_fmc.c ****     This subsection provides a set of functions allowing to control dynamically
 969:../Drivers/STM32F4xx_HAL_Driver/Src/stm32f4xx_ll_fmc.c ****     the FMC NAND interface.
 970:../Drivers/STM32F4xx_HAL_Driver/Src/stm32f4xx_ll_fmc.c **** 
 971:../Drivers/STM32F4xx_HAL_Driver/Src/stm32f4xx_ll_fmc.c **** @endverbatim
 972:../Drivers/STM32F4xx_HAL_Driver/Src/stm32f4xx_ll_fmc.c ****   * @{
 973:../Drivers/STM32F4xx_HAL_Driver/Src/stm32f4xx_ll_fmc.c ****   */ 
 974:../Drivers/STM32F4xx_HAL_Driver/Src/stm32f4xx_ll_fmc.c **** /**
 975:../Drivers/STM32F4xx_HAL_Driver/Src/stm32f4xx_ll_fmc.c ****   * @brief  Enables dynamically FMC_NAND ECC feature.
 976:../Drivers/STM32F4xx_HAL_Driver/Src/stm32f4xx_ll_fmc.c ****   * @param  Device Pointer to NAND device instance
 977:../Drivers/STM32F4xx_HAL_Driver/Src/stm32f4xx_ll_fmc.c ****   * @param  Bank NAND bank number
 978:../Drivers/STM32F4xx_HAL_Driver/Src/stm32f4xx_ll_fmc.c ****   * @retval HAL status
 979:../Drivers/STM32F4xx_HAL_Driver/Src/stm32f4xx_ll_fmc.c ****   */    
 980:../Drivers/STM32F4xx_HAL_Driver/Src/stm32f4xx_ll_fmc.c **** HAL_StatusTypeDef FMC_NAND_ECC_Enable(FMC_NAND_TypeDef *Device, uint32_t Bank)
 981:../Drivers/STM32F4xx_HAL_Driver/Src/stm32f4xx_ll_fmc.c **** {
 896              		.loc 1 981 1 is_stmt 1 view -0
 897              		.cfi_startproc
 898              		@ args = 0, pretend = 0, frame = 0
 899              		@ frame_needed = 0, uses_anonymous_args = 0
 900              		@ link register save eliminated.
 982:../Drivers/STM32F4xx_HAL_Driver/Src/stm32f4xx_ll_fmc.c ****   /* Check the parameters */ 
 983:../Drivers/STM32F4xx_HAL_Driver/Src/stm32f4xx_ll_fmc.c ****   assert_param(IS_FMC_NAND_DEVICE(Device)); 
 901              		.loc 1 983 3 view .LVU305
 984:../Drivers/STM32F4xx_HAL_Driver/Src/stm32f4xx_ll_fmc.c ****   assert_param(IS_FMC_NAND_BANK(Bank));
 902              		.loc 1 984 3 view .LVU306
 985:../Drivers/STM32F4xx_HAL_Driver/Src/stm32f4xx_ll_fmc.c ****     
 986:../Drivers/STM32F4xx_HAL_Driver/Src/stm32f4xx_ll_fmc.c ****   /* Enable ECC feature */
 987:../Drivers/STM32F4xx_HAL_Driver/Src/stm32f4xx_ll_fmc.c ****   if(Bank == FMC_NAND_BANK2)
 903              		.loc 1 987 3 view .LVU307
 904              		.loc 1 987 5 is_stmt 0 view .LVU308
 905 0000 1029     		cmp	r1, #16
 906 0002 05D0     		beq	.L63
ARM GAS  /tmp/cc2u48vv.s 			page 35


 988:../Drivers/STM32F4xx_HAL_Driver/Src/stm32f4xx_ll_fmc.c ****   {
 989:../Drivers/STM32F4xx_HAL_Driver/Src/stm32f4xx_ll_fmc.c ****     Device->PCR2 |= FMC_PCR2_ECCEN;
 990:../Drivers/STM32F4xx_HAL_Driver/Src/stm32f4xx_ll_fmc.c ****   }
 991:../Drivers/STM32F4xx_HAL_Driver/Src/stm32f4xx_ll_fmc.c ****   else
 992:../Drivers/STM32F4xx_HAL_Driver/Src/stm32f4xx_ll_fmc.c ****   {
 993:../Drivers/STM32F4xx_HAL_Driver/Src/stm32f4xx_ll_fmc.c ****     Device->PCR3 |= FMC_PCR3_ECCEN;
 907              		.loc 1 993 5 is_stmt 1 view .LVU309
 908              		.loc 1 993 18 is_stmt 0 view .LVU310
 909 0004 036A     		ldr	r3, [r0, #32]
 910 0006 43F04003 		orr	r3, r3, #64
 911 000a 0362     		str	r3, [r0, #32]
 912              	.L62:
 994:../Drivers/STM32F4xx_HAL_Driver/Src/stm32f4xx_ll_fmc.c ****   } 
 995:../Drivers/STM32F4xx_HAL_Driver/Src/stm32f4xx_ll_fmc.c ****   
 996:../Drivers/STM32F4xx_HAL_Driver/Src/stm32f4xx_ll_fmc.c ****   return HAL_OK;  
 913              		.loc 1 996 3 is_stmt 1 view .LVU311
 997:../Drivers/STM32F4xx_HAL_Driver/Src/stm32f4xx_ll_fmc.c **** }
 914              		.loc 1 997 1 is_stmt 0 view .LVU312
 915 000c 0020     		movs	r0, #0
 916              	.LVL72:
 917              		.loc 1 997 1 view .LVU313
 918 000e 7047     		bx	lr
 919              	.LVL73:
 920              	.L63:
 989:../Drivers/STM32F4xx_HAL_Driver/Src/stm32f4xx_ll_fmc.c ****   }
 921              		.loc 1 989 5 is_stmt 1 view .LVU314
 989:../Drivers/STM32F4xx_HAL_Driver/Src/stm32f4xx_ll_fmc.c ****   }
 922              		.loc 1 989 18 is_stmt 0 view .LVU315
 923 0010 0368     		ldr	r3, [r0]
 924 0012 43F04003 		orr	r3, r3, #64
 925 0016 0360     		str	r3, [r0]
 926 0018 F8E7     		b	.L62
 927              		.cfi_endproc
 928              	.LFE140:
 930              		.section	.text.FMC_NAND_ECC_Disable,"ax",%progbits
 931              		.align	1
 932              		.global	FMC_NAND_ECC_Disable
 933              		.syntax unified
 934              		.thumb
 935              		.thumb_func
 936              		.fpu fpv4-sp-d16
 938              	FMC_NAND_ECC_Disable:
 939              	.LVL74:
 940              	.LFB141:
 998:../Drivers/STM32F4xx_HAL_Driver/Src/stm32f4xx_ll_fmc.c **** 
 999:../Drivers/STM32F4xx_HAL_Driver/Src/stm32f4xx_ll_fmc.c **** /**
1000:../Drivers/STM32F4xx_HAL_Driver/Src/stm32f4xx_ll_fmc.c ****   * @brief  Disables dynamically FMC_NAND ECC feature.
1001:../Drivers/STM32F4xx_HAL_Driver/Src/stm32f4xx_ll_fmc.c ****   * @param  Device Pointer to NAND device instance
1002:../Drivers/STM32F4xx_HAL_Driver/Src/stm32f4xx_ll_fmc.c ****   * @param  Bank NAND bank number
1003:../Drivers/STM32F4xx_HAL_Driver/Src/stm32f4xx_ll_fmc.c ****   * @retval HAL status
1004:../Drivers/STM32F4xx_HAL_Driver/Src/stm32f4xx_ll_fmc.c ****   */  
1005:../Drivers/STM32F4xx_HAL_Driver/Src/stm32f4xx_ll_fmc.c **** HAL_StatusTypeDef FMC_NAND_ECC_Disable(FMC_NAND_TypeDef *Device, uint32_t Bank)  
1006:../Drivers/STM32F4xx_HAL_Driver/Src/stm32f4xx_ll_fmc.c **** {  
 941              		.loc 1 1006 1 is_stmt 1 view -0
 942              		.cfi_startproc
 943              		@ args = 0, pretend = 0, frame = 0
 944              		@ frame_needed = 0, uses_anonymous_args = 0
ARM GAS  /tmp/cc2u48vv.s 			page 36


 945              		@ link register save eliminated.
1007:../Drivers/STM32F4xx_HAL_Driver/Src/stm32f4xx_ll_fmc.c ****   /* Check the parameters */ 
1008:../Drivers/STM32F4xx_HAL_Driver/Src/stm32f4xx_ll_fmc.c ****   assert_param(IS_FMC_NAND_DEVICE(Device)); 
 946              		.loc 1 1008 3 view .LVU317
1009:../Drivers/STM32F4xx_HAL_Driver/Src/stm32f4xx_ll_fmc.c ****   assert_param(IS_FMC_NAND_BANK(Bank));
 947              		.loc 1 1009 3 view .LVU318
1010:../Drivers/STM32F4xx_HAL_Driver/Src/stm32f4xx_ll_fmc.c ****     
1011:../Drivers/STM32F4xx_HAL_Driver/Src/stm32f4xx_ll_fmc.c ****   /* Disable ECC feature */
1012:../Drivers/STM32F4xx_HAL_Driver/Src/stm32f4xx_ll_fmc.c ****   if(Bank == FMC_NAND_BANK2)
 948              		.loc 1 1012 3 view .LVU319
 949              		.loc 1 1012 5 is_stmt 0 view .LVU320
 950 0000 1029     		cmp	r1, #16
 951 0002 05D0     		beq	.L67
1013:../Drivers/STM32F4xx_HAL_Driver/Src/stm32f4xx_ll_fmc.c ****   {
1014:../Drivers/STM32F4xx_HAL_Driver/Src/stm32f4xx_ll_fmc.c ****     Device->PCR2 &= ~FMC_PCR2_ECCEN;
1015:../Drivers/STM32F4xx_HAL_Driver/Src/stm32f4xx_ll_fmc.c ****   }
1016:../Drivers/STM32F4xx_HAL_Driver/Src/stm32f4xx_ll_fmc.c ****   else
1017:../Drivers/STM32F4xx_HAL_Driver/Src/stm32f4xx_ll_fmc.c ****   {
1018:../Drivers/STM32F4xx_HAL_Driver/Src/stm32f4xx_ll_fmc.c ****     Device->PCR3 &= ~FMC_PCR3_ECCEN;
 952              		.loc 1 1018 5 is_stmt 1 view .LVU321
 953              		.loc 1 1018 18 is_stmt 0 view .LVU322
 954 0004 036A     		ldr	r3, [r0, #32]
 955 0006 23F04003 		bic	r3, r3, #64
 956 000a 0362     		str	r3, [r0, #32]
 957              	.L66:
1019:../Drivers/STM32F4xx_HAL_Driver/Src/stm32f4xx_ll_fmc.c ****   } 
1020:../Drivers/STM32F4xx_HAL_Driver/Src/stm32f4xx_ll_fmc.c **** 
1021:../Drivers/STM32F4xx_HAL_Driver/Src/stm32f4xx_ll_fmc.c ****   return HAL_OK;  
 958              		.loc 1 1021 3 is_stmt 1 view .LVU323
1022:../Drivers/STM32F4xx_HAL_Driver/Src/stm32f4xx_ll_fmc.c **** }
 959              		.loc 1 1022 1 is_stmt 0 view .LVU324
 960 000c 0020     		movs	r0, #0
 961              	.LVL75:
 962              		.loc 1 1022 1 view .LVU325
 963 000e 7047     		bx	lr
 964              	.LVL76:
 965              	.L67:
1014:../Drivers/STM32F4xx_HAL_Driver/Src/stm32f4xx_ll_fmc.c ****   }
 966              		.loc 1 1014 5 is_stmt 1 view .LVU326
1014:../Drivers/STM32F4xx_HAL_Driver/Src/stm32f4xx_ll_fmc.c ****   }
 967              		.loc 1 1014 18 is_stmt 0 view .LVU327
 968 0010 0368     		ldr	r3, [r0]
 969 0012 23F04003 		bic	r3, r3, #64
 970 0016 0360     		str	r3, [r0]
 971 0018 F8E7     		b	.L66
 972              		.cfi_endproc
 973              	.LFE141:
 975              		.section	.text.FMC_NAND_GetECC,"ax",%progbits
 976              		.align	1
 977              		.global	FMC_NAND_GetECC
 978              		.syntax unified
 979              		.thumb
 980              		.thumb_func
 981              		.fpu fpv4-sp-d16
 983              	FMC_NAND_GetECC:
 984              	.LVL77:
 985              	.LFB142:
ARM GAS  /tmp/cc2u48vv.s 			page 37


1023:../Drivers/STM32F4xx_HAL_Driver/Src/stm32f4xx_ll_fmc.c **** 
1024:../Drivers/STM32F4xx_HAL_Driver/Src/stm32f4xx_ll_fmc.c **** /**
1025:../Drivers/STM32F4xx_HAL_Driver/Src/stm32f4xx_ll_fmc.c ****   * @brief  Disables dynamically FMC_NAND ECC feature.
1026:../Drivers/STM32F4xx_HAL_Driver/Src/stm32f4xx_ll_fmc.c ****   * @param  Device Pointer to NAND device instance
1027:../Drivers/STM32F4xx_HAL_Driver/Src/stm32f4xx_ll_fmc.c ****   * @param  ECCval Pointer to ECC value
1028:../Drivers/STM32F4xx_HAL_Driver/Src/stm32f4xx_ll_fmc.c ****   * @param  Bank NAND bank number
1029:../Drivers/STM32F4xx_HAL_Driver/Src/stm32f4xx_ll_fmc.c ****   * @param  Timeout Timeout wait value  
1030:../Drivers/STM32F4xx_HAL_Driver/Src/stm32f4xx_ll_fmc.c ****   * @retval HAL status
1031:../Drivers/STM32F4xx_HAL_Driver/Src/stm32f4xx_ll_fmc.c ****   */
1032:../Drivers/STM32F4xx_HAL_Driver/Src/stm32f4xx_ll_fmc.c **** HAL_StatusTypeDef FMC_NAND_GetECC(FMC_NAND_TypeDef *Device, uint32_t *ECCval, uint32_t Bank, uint32
1033:../Drivers/STM32F4xx_HAL_Driver/Src/stm32f4xx_ll_fmc.c **** {
 986              		.loc 1 1033 1 is_stmt 1 view -0
 987              		.cfi_startproc
 988              		@ args = 0, pretend = 0, frame = 0
 989              		@ frame_needed = 0, uses_anonymous_args = 0
 990              		.loc 1 1033 1 is_stmt 0 view .LVU329
 991 0000 2DE9F843 		push	{r3, r4, r5, r6, r7, r8, r9, lr}
 992              	.LCFI15:
 993              		.cfi_def_cfa_offset 32
 994              		.cfi_offset 3, -32
 995              		.cfi_offset 4, -28
 996              		.cfi_offset 5, -24
 997              		.cfi_offset 6, -20
 998              		.cfi_offset 7, -16
 999              		.cfi_offset 8, -12
 1000              		.cfi_offset 9, -8
 1001              		.cfi_offset 14, -4
 1002 0004 0646     		mov	r6, r0
 1003 0006 8846     		mov	r8, r1
 1004 0008 1546     		mov	r5, r2
 1005 000a 1F46     		mov	r7, r3
1034:../Drivers/STM32F4xx_HAL_Driver/Src/stm32f4xx_ll_fmc.c ****   uint32_t tickstart = 0U;
 1006              		.loc 1 1034 3 is_stmt 1 view .LVU330
 1007              	.LVL78:
1035:../Drivers/STM32F4xx_HAL_Driver/Src/stm32f4xx_ll_fmc.c **** 
1036:../Drivers/STM32F4xx_HAL_Driver/Src/stm32f4xx_ll_fmc.c ****   /* Check the parameters */ 
1037:../Drivers/STM32F4xx_HAL_Driver/Src/stm32f4xx_ll_fmc.c ****   assert_param(IS_FMC_NAND_DEVICE(Device)); 
 1008              		.loc 1 1037 3 view .LVU331
1038:../Drivers/STM32F4xx_HAL_Driver/Src/stm32f4xx_ll_fmc.c ****   assert_param(IS_FMC_NAND_BANK(Bank));
 1009              		.loc 1 1038 3 view .LVU332
1039:../Drivers/STM32F4xx_HAL_Driver/Src/stm32f4xx_ll_fmc.c **** 
1040:../Drivers/STM32F4xx_HAL_Driver/Src/stm32f4xx_ll_fmc.c ****   /* Get tick */ 
1041:../Drivers/STM32F4xx_HAL_Driver/Src/stm32f4xx_ll_fmc.c ****   tickstart = HAL_GetTick();
 1010              		.loc 1 1041 3 view .LVU333
 1011              		.loc 1 1041 15 is_stmt 0 view .LVU334
 1012 000c FFF7FEFF 		bl	HAL_GetTick
 1013              	.LVL79:
 1014              		.loc 1 1041 15 view .LVU335
 1015 0010 8146     		mov	r9, r0
 1016              	.LVL80:
1042:../Drivers/STM32F4xx_HAL_Driver/Src/stm32f4xx_ll_fmc.c **** 
1043:../Drivers/STM32F4xx_HAL_Driver/Src/stm32f4xx_ll_fmc.c ****   /* Wait until FIFO is empty */
1044:../Drivers/STM32F4xx_HAL_Driver/Src/stm32f4xx_ll_fmc.c ****   while(__FMC_NAND_GET_FLAG(Device, Bank, FMC_FLAG_FEMPT) == RESET)
 1017              		.loc 1 1044 3 is_stmt 1 view .LVU336
 1018              		.loc 1 1044 8 is_stmt 0 view .LVU337
 1019 0012 12E0     		b	.L70
 1020              	.LVL81:
ARM GAS  /tmp/cc2u48vv.s 			page 38


 1021              	.L79:
1045:../Drivers/STM32F4xx_HAL_Driver/Src/stm32f4xx_ll_fmc.c ****   {
1046:../Drivers/STM32F4xx_HAL_Driver/Src/stm32f4xx_ll_fmc.c ****     /* Check for the Timeout */
1047:../Drivers/STM32F4xx_HAL_Driver/Src/stm32f4xx_ll_fmc.c ****     if(Timeout != HAL_MAX_DELAY)
1048:../Drivers/STM32F4xx_HAL_Driver/Src/stm32f4xx_ll_fmc.c ****     {
1049:../Drivers/STM32F4xx_HAL_Driver/Src/stm32f4xx_ll_fmc.c ****       if((Timeout == 0U)||((HAL_GetTick() - tickstart ) > Timeout))
 1022              		.loc 1 1049 7 is_stmt 1 view .LVU338
 1023              		.loc 1 1049 9 is_stmt 0 view .LVU339
 1024 0014 2FB1     		cbz	r7, .L71
 1025              		.loc 1 1049 29 discriminator 1 view .LVU340
 1026 0016 FFF7FEFF 		bl	HAL_GetTick
 1027              	.LVL82:
 1028              		.loc 1 1049 43 discriminator 1 view .LVU341
 1029 001a A0EB0900 		sub	r0, r0, r9
 1030              		.loc 1 1049 25 discriminator 1 view .LVU342
 1031 001e B842     		cmp	r0, r7
 1032 0020 0BD9     		bls	.L70
 1033              	.L71:
1050:../Drivers/STM32F4xx_HAL_Driver/Src/stm32f4xx_ll_fmc.c ****       {
1051:../Drivers/STM32F4xx_HAL_Driver/Src/stm32f4xx_ll_fmc.c ****         return HAL_TIMEOUT;
 1034              		.loc 1 1051 9 is_stmt 1 view .LVU343
 1035              		.loc 1 1051 16 is_stmt 0 view .LVU344
 1036 0022 0320     		movs	r0, #3
 1037 0024 18E0     		b	.L72
 1038              	.L73:
1044:../Drivers/STM32F4xx_HAL_Driver/Src/stm32f4xx_ll_fmc.c ****   {
 1039              		.loc 1 1044 9 discriminator 2 view .LVU345
 1040 0026 746A     		ldr	r4, [r6, #36]
1044:../Drivers/STM32F4xx_HAL_Driver/Src/stm32f4xx_ll_fmc.c ****   {
 1041              		.loc 1 1044 59 discriminator 2 view .LVU346
 1042 0028 14F0400F 		tst	r4, #64
 1043 002c 0CBF     		ite	eq
 1044 002e 0124     		moveq	r4, #1
 1045 0030 0024     		movne	r4, #0
 1046              	.L74:
1044:../Drivers/STM32F4xx_HAL_Driver/Src/stm32f4xx_ll_fmc.c ****   {
 1047              		.loc 1 1044 59 discriminator 4 view .LVU347
 1048 0032 5CB1     		cbz	r4, .L78
1047:../Drivers/STM32F4xx_HAL_Driver/Src/stm32f4xx_ll_fmc.c ****     {
 1049              		.loc 1 1047 5 is_stmt 1 view .LVU348
1047:../Drivers/STM32F4xx_HAL_Driver/Src/stm32f4xx_ll_fmc.c ****     {
 1050              		.loc 1 1047 7 is_stmt 0 view .LVU349
 1051 0034 B7F1FF3F 		cmp	r7, #-1
 1052 0038 ECD1     		bne	.L79
 1053              	.L70:
1044:../Drivers/STM32F4xx_HAL_Driver/Src/stm32f4xx_ll_fmc.c ****   {
 1054              		.loc 1 1044 59 is_stmt 1 view .LVU350
 1055 003a 102D     		cmp	r5, #16
 1056 003c F3D1     		bne	.L73
1044:../Drivers/STM32F4xx_HAL_Driver/Src/stm32f4xx_ll_fmc.c ****   {
 1057              		.loc 1 1044 9 is_stmt 0 discriminator 1 view .LVU351
 1058 003e 7368     		ldr	r3, [r6, #4]
1044:../Drivers/STM32F4xx_HAL_Driver/Src/stm32f4xx_ll_fmc.c ****   {
 1059              		.loc 1 1044 59 discriminator 1 view .LVU352
 1060 0040 13F0400F 		tst	r3, #64
 1061 0044 0CBF     		ite	eq
 1062 0046 0124     		moveq	r4, #1
ARM GAS  /tmp/cc2u48vv.s 			page 39


 1063 0048 0024     		movne	r4, #0
 1064 004a F2E7     		b	.L74
 1065              	.L78:
1052:../Drivers/STM32F4xx_HAL_Driver/Src/stm32f4xx_ll_fmc.c ****       }
1053:../Drivers/STM32F4xx_HAL_Driver/Src/stm32f4xx_ll_fmc.c ****     }  
1054:../Drivers/STM32F4xx_HAL_Driver/Src/stm32f4xx_ll_fmc.c ****   }
1055:../Drivers/STM32F4xx_HAL_Driver/Src/stm32f4xx_ll_fmc.c ****      
1056:../Drivers/STM32F4xx_HAL_Driver/Src/stm32f4xx_ll_fmc.c ****   if(Bank == FMC_NAND_BANK2)
 1066              		.loc 1 1056 3 is_stmt 1 view .LVU353
 1067              		.loc 1 1056 5 is_stmt 0 view .LVU354
 1068 004c 102D     		cmp	r5, #16
 1069 004e 05D0     		beq	.L80
1057:../Drivers/STM32F4xx_HAL_Driver/Src/stm32f4xx_ll_fmc.c ****   {    
1058:../Drivers/STM32F4xx_HAL_Driver/Src/stm32f4xx_ll_fmc.c ****     /* Get the ECCR2 register value */
1059:../Drivers/STM32F4xx_HAL_Driver/Src/stm32f4xx_ll_fmc.c ****     *ECCval = (uint32_t)Device->ECCR2;
1060:../Drivers/STM32F4xx_HAL_Driver/Src/stm32f4xx_ll_fmc.c ****   }
1061:../Drivers/STM32F4xx_HAL_Driver/Src/stm32f4xx_ll_fmc.c ****   else
1062:../Drivers/STM32F4xx_HAL_Driver/Src/stm32f4xx_ll_fmc.c ****   {    
1063:../Drivers/STM32F4xx_HAL_Driver/Src/stm32f4xx_ll_fmc.c ****     /* Get the ECCR3 register value */
1064:../Drivers/STM32F4xx_HAL_Driver/Src/stm32f4xx_ll_fmc.c ****     *ECCval = (uint32_t)Device->ECCR3;
 1070              		.loc 1 1064 5 is_stmt 1 view .LVU355
 1071              		.loc 1 1064 31 is_stmt 0 view .LVU356
 1072 0050 736B     		ldr	r3, [r6, #52]
 1073              		.loc 1 1064 13 view .LVU357
 1074 0052 C8F80030 		str	r3, [r8]
1065:../Drivers/STM32F4xx_HAL_Driver/Src/stm32f4xx_ll_fmc.c ****   }
1066:../Drivers/STM32F4xx_HAL_Driver/Src/stm32f4xx_ll_fmc.c **** 
1067:../Drivers/STM32F4xx_HAL_Driver/Src/stm32f4xx_ll_fmc.c ****   return HAL_OK;  
 1075              		.loc 1 1067 10 view .LVU358
 1076 0056 0020     		movs	r0, #0
 1077              	.L72:
1068:../Drivers/STM32F4xx_HAL_Driver/Src/stm32f4xx_ll_fmc.c **** }
 1078              		.loc 1 1068 1 view .LVU359
 1079 0058 BDE8F883 		pop	{r3, r4, r5, r6, r7, r8, r9, pc}
 1080              	.LVL83:
 1081              	.L80:
1059:../Drivers/STM32F4xx_HAL_Driver/Src/stm32f4xx_ll_fmc.c ****   }
 1082              		.loc 1 1059 5 is_stmt 1 view .LVU360
1059:../Drivers/STM32F4xx_HAL_Driver/Src/stm32f4xx_ll_fmc.c ****   }
 1083              		.loc 1 1059 31 is_stmt 0 view .LVU361
 1084 005c 7369     		ldr	r3, [r6, #20]
1059:../Drivers/STM32F4xx_HAL_Driver/Src/stm32f4xx_ll_fmc.c ****   }
 1085              		.loc 1 1059 13 view .LVU362
 1086 005e C8F80030 		str	r3, [r8]
1067:../Drivers/STM32F4xx_HAL_Driver/Src/stm32f4xx_ll_fmc.c **** }
 1087              		.loc 1 1067 10 view .LVU363
 1088 0062 0020     		movs	r0, #0
 1089 0064 F8E7     		b	.L72
 1090              		.cfi_endproc
 1091              	.LFE142:
 1093              		.section	.text.FMC_PCCARD_Init,"ax",%progbits
 1094              		.align	1
 1095              		.global	FMC_PCCARD_Init
 1096              		.syntax unified
 1097              		.thumb
 1098              		.thumb_func
 1099              		.fpu fpv4-sp-d16
ARM GAS  /tmp/cc2u48vv.s 			page 40


 1101              	FMC_PCCARD_Init:
 1102              	.LVL84:
 1103              	.LFB143:
1069:../Drivers/STM32F4xx_HAL_Driver/Src/stm32f4xx_ll_fmc.c **** 
1070:../Drivers/STM32F4xx_HAL_Driver/Src/stm32f4xx_ll_fmc.c **** /**
1071:../Drivers/STM32F4xx_HAL_Driver/Src/stm32f4xx_ll_fmc.c ****   * @}
1072:../Drivers/STM32F4xx_HAL_Driver/Src/stm32f4xx_ll_fmc.c ****   */
1073:../Drivers/STM32F4xx_HAL_Driver/Src/stm32f4xx_ll_fmc.c **** 
1074:../Drivers/STM32F4xx_HAL_Driver/Src/stm32f4xx_ll_fmc.c **** #endif /* defined(STM32F446xx) || defined(STM32F469xx) || defined(STM32F479xx) */
1075:../Drivers/STM32F4xx_HAL_Driver/Src/stm32f4xx_ll_fmc.c **** /**
1076:../Drivers/STM32F4xx_HAL_Driver/Src/stm32f4xx_ll_fmc.c ****   * @}
1077:../Drivers/STM32F4xx_HAL_Driver/Src/stm32f4xx_ll_fmc.c ****   */
1078:../Drivers/STM32F4xx_HAL_Driver/Src/stm32f4xx_ll_fmc.c **** 
1079:../Drivers/STM32F4xx_HAL_Driver/Src/stm32f4xx_ll_fmc.c **** #if defined(STM32F427xx) || defined(STM32F437xx) || defined(STM32F429xx) || defined(STM32F439xx)
1080:../Drivers/STM32F4xx_HAL_Driver/Src/stm32f4xx_ll_fmc.c **** /** @addtogroup FMC_LL_PCCARD
1081:../Drivers/STM32F4xx_HAL_Driver/Src/stm32f4xx_ll_fmc.c ****   * @brief    PCCARD Controller functions 
1082:../Drivers/STM32F4xx_HAL_Driver/Src/stm32f4xx_ll_fmc.c ****   *
1083:../Drivers/STM32F4xx_HAL_Driver/Src/stm32f4xx_ll_fmc.c ****   @verbatim 
1084:../Drivers/STM32F4xx_HAL_Driver/Src/stm32f4xx_ll_fmc.c ****   ==============================================================================  
1085:../Drivers/STM32F4xx_HAL_Driver/Src/stm32f4xx_ll_fmc.c ****                     ##### How to use PCCARD device driver #####
1086:../Drivers/STM32F4xx_HAL_Driver/Src/stm32f4xx_ll_fmc.c ****   ==============================================================================
1087:../Drivers/STM32F4xx_HAL_Driver/Src/stm32f4xx_ll_fmc.c ****   [..]
1088:../Drivers/STM32F4xx_HAL_Driver/Src/stm32f4xx_ll_fmc.c ****     This driver contains a set of APIs to interface with the FMC PCCARD bank in order
1089:../Drivers/STM32F4xx_HAL_Driver/Src/stm32f4xx_ll_fmc.c ****     to run the PCCARD/compact flash external devices.
1090:../Drivers/STM32F4xx_HAL_Driver/Src/stm32f4xx_ll_fmc.c ****   
1091:../Drivers/STM32F4xx_HAL_Driver/Src/stm32f4xx_ll_fmc.c ****     (+) FMC PCCARD bank reset using the function FMC_PCCARD_DeInit() 
1092:../Drivers/STM32F4xx_HAL_Driver/Src/stm32f4xx_ll_fmc.c ****     (+) FMC PCCARD bank control configuration using the function FMC_PCCARD_Init()
1093:../Drivers/STM32F4xx_HAL_Driver/Src/stm32f4xx_ll_fmc.c ****     (+) FMC PCCARD bank common space timing configuration using the function 
1094:../Drivers/STM32F4xx_HAL_Driver/Src/stm32f4xx_ll_fmc.c ****         FMC_PCCARD_CommonSpace_Timing_Init()
1095:../Drivers/STM32F4xx_HAL_Driver/Src/stm32f4xx_ll_fmc.c ****     (+) FMC PCCARD bank attribute space timing configuration using the function 
1096:../Drivers/STM32F4xx_HAL_Driver/Src/stm32f4xx_ll_fmc.c ****         FMC_PCCARD_AttributeSpace_Timing_Init()
1097:../Drivers/STM32F4xx_HAL_Driver/Src/stm32f4xx_ll_fmc.c ****     (+) FMC PCCARD bank IO space timing configuration using the function 
1098:../Drivers/STM32F4xx_HAL_Driver/Src/stm32f4xx_ll_fmc.c ****         FMC_PCCARD_IOSpace_Timing_Init()
1099:../Drivers/STM32F4xx_HAL_Driver/Src/stm32f4xx_ll_fmc.c **** @endverbatim
1100:../Drivers/STM32F4xx_HAL_Driver/Src/stm32f4xx_ll_fmc.c ****   * @{
1101:../Drivers/STM32F4xx_HAL_Driver/Src/stm32f4xx_ll_fmc.c ****   */
1102:../Drivers/STM32F4xx_HAL_Driver/Src/stm32f4xx_ll_fmc.c ****   
1103:../Drivers/STM32F4xx_HAL_Driver/Src/stm32f4xx_ll_fmc.c **** /** @addtogroup FMC_LL_PCCARD_Private_Functions_Group1
1104:../Drivers/STM32F4xx_HAL_Driver/Src/stm32f4xx_ll_fmc.c ****   *  @brief    Initialization and Configuration functions 
1105:../Drivers/STM32F4xx_HAL_Driver/Src/stm32f4xx_ll_fmc.c ****   *
1106:../Drivers/STM32F4xx_HAL_Driver/Src/stm32f4xx_ll_fmc.c **** @verbatim    
1107:../Drivers/STM32F4xx_HAL_Driver/Src/stm32f4xx_ll_fmc.c ****   ==============================================================================
1108:../Drivers/STM32F4xx_HAL_Driver/Src/stm32f4xx_ll_fmc.c ****               ##### Initialization and de_initialization functions #####
1109:../Drivers/STM32F4xx_HAL_Driver/Src/stm32f4xx_ll_fmc.c ****   ==============================================================================
1110:../Drivers/STM32F4xx_HAL_Driver/Src/stm32f4xx_ll_fmc.c ****   [..]  
1111:../Drivers/STM32F4xx_HAL_Driver/Src/stm32f4xx_ll_fmc.c ****     This section provides functions allowing to:
1112:../Drivers/STM32F4xx_HAL_Driver/Src/stm32f4xx_ll_fmc.c ****     (+) Initialize and configure the FMC PCCARD interface
1113:../Drivers/STM32F4xx_HAL_Driver/Src/stm32f4xx_ll_fmc.c ****     (+) De-initialize the FMC PCCARD interface 
1114:../Drivers/STM32F4xx_HAL_Driver/Src/stm32f4xx_ll_fmc.c ****     (+) Configure the FMC clock and associated GPIOs
1115:../Drivers/STM32F4xx_HAL_Driver/Src/stm32f4xx_ll_fmc.c ****         
1116:../Drivers/STM32F4xx_HAL_Driver/Src/stm32f4xx_ll_fmc.c **** @endverbatim
1117:../Drivers/STM32F4xx_HAL_Driver/Src/stm32f4xx_ll_fmc.c ****   * @{
1118:../Drivers/STM32F4xx_HAL_Driver/Src/stm32f4xx_ll_fmc.c ****   */
1119:../Drivers/STM32F4xx_HAL_Driver/Src/stm32f4xx_ll_fmc.c ****   
1120:../Drivers/STM32F4xx_HAL_Driver/Src/stm32f4xx_ll_fmc.c **** /**
1121:../Drivers/STM32F4xx_HAL_Driver/Src/stm32f4xx_ll_fmc.c ****   * @brief  Initializes the FMC_PCCARD device according to the specified
1122:../Drivers/STM32F4xx_HAL_Driver/Src/stm32f4xx_ll_fmc.c ****   *         control parameters in the FMC_PCCARD_HandleTypeDef
ARM GAS  /tmp/cc2u48vv.s 			page 41


1123:../Drivers/STM32F4xx_HAL_Driver/Src/stm32f4xx_ll_fmc.c ****   * @param  Device Pointer to PCCARD device instance
1124:../Drivers/STM32F4xx_HAL_Driver/Src/stm32f4xx_ll_fmc.c ****   * @param  Init Pointer to PCCARD Initialization structure   
1125:../Drivers/STM32F4xx_HAL_Driver/Src/stm32f4xx_ll_fmc.c ****   * @retval HAL status
1126:../Drivers/STM32F4xx_HAL_Driver/Src/stm32f4xx_ll_fmc.c ****   */
1127:../Drivers/STM32F4xx_HAL_Driver/Src/stm32f4xx_ll_fmc.c **** HAL_StatusTypeDef FMC_PCCARD_Init(FMC_PCCARD_TypeDef *Device, FMC_PCCARD_InitTypeDef *Init)
1128:../Drivers/STM32F4xx_HAL_Driver/Src/stm32f4xx_ll_fmc.c **** {
 1104              		.loc 1 1128 1 is_stmt 1 view -0
 1105              		.cfi_startproc
 1106              		@ args = 0, pretend = 0, frame = 0
 1107              		@ frame_needed = 0, uses_anonymous_args = 0
 1108              		@ link register save eliminated.
 1109              		.loc 1 1128 1 is_stmt 0 view .LVU365
 1110 0000 10B4     		push	{r4}
 1111              	.LCFI16:
 1112              		.cfi_def_cfa_offset 4
 1113              		.cfi_offset 4, -4
1129:../Drivers/STM32F4xx_HAL_Driver/Src/stm32f4xx_ll_fmc.c ****   uint32_t tmpr = 0U;
 1114              		.loc 1 1129 3 is_stmt 1 view .LVU366
 1115              	.LVL85:
1130:../Drivers/STM32F4xx_HAL_Driver/Src/stm32f4xx_ll_fmc.c **** 
1131:../Drivers/STM32F4xx_HAL_Driver/Src/stm32f4xx_ll_fmc.c ****   /* Check the parameters */ 
1132:../Drivers/STM32F4xx_HAL_Driver/Src/stm32f4xx_ll_fmc.c ****   assert_param(IS_FMC_PCCARD_DEVICE(Device));
 1116              		.loc 1 1132 3 view .LVU367
1133:../Drivers/STM32F4xx_HAL_Driver/Src/stm32f4xx_ll_fmc.c ****   assert_param(IS_FMC_WAIT_FEATURE(Init->Waitfeature));
 1117              		.loc 1 1133 3 view .LVU368
1134:../Drivers/STM32F4xx_HAL_Driver/Src/stm32f4xx_ll_fmc.c ****   assert_param(IS_FMC_TCLR_TIME(Init->TCLRSetupTime));
 1118              		.loc 1 1134 3 view .LVU369
1135:../Drivers/STM32F4xx_HAL_Driver/Src/stm32f4xx_ll_fmc.c ****   assert_param(IS_FMC_TAR_TIME(Init->TARSetupTime));     
 1119              		.loc 1 1135 3 view .LVU370
1136:../Drivers/STM32F4xx_HAL_Driver/Src/stm32f4xx_ll_fmc.c ****   
1137:../Drivers/STM32F4xx_HAL_Driver/Src/stm32f4xx_ll_fmc.c ****   /* Get PCCARD control register value */
1138:../Drivers/STM32F4xx_HAL_Driver/Src/stm32f4xx_ll_fmc.c ****   tmpr = Device->PCR4;
 1120              		.loc 1 1138 3 view .LVU371
 1121              		.loc 1 1138 8 is_stmt 0 view .LVU372
 1122 0002 0268     		ldr	r2, [r0]
 1123              	.LVL86:
1139:../Drivers/STM32F4xx_HAL_Driver/Src/stm32f4xx_ll_fmc.c ****   
1140:../Drivers/STM32F4xx_HAL_Driver/Src/stm32f4xx_ll_fmc.c ****   /* Clear TAR, TCLR, PWAITEN and PWID bits */
1141:../Drivers/STM32F4xx_HAL_Driver/Src/stm32f4xx_ll_fmc.c ****   tmpr &= ((uint32_t)~(FMC_PCR4_TAR  | FMC_PCR4_TCLR | FMC_PCR4_PWAITEN | \
 1124              		.loc 1 1141 3 is_stmt 1 view .LVU373
 1125              		.loc 1 1141 8 is_stmt 0 view .LVU374
 1126 0004 22F4FF32 		bic	r2, r2, #130560
 1127              	.LVL87:
 1128              		.loc 1 1141 8 view .LVU375
 1129 0008 22F03A02 		bic	r2, r2, #58
 1130              	.LVL88:
1142:../Drivers/STM32F4xx_HAL_Driver/Src/stm32f4xx_ll_fmc.c ****                        FMC_PCR4_PWID | FMC_PCR4_PTYP));
1143:../Drivers/STM32F4xx_HAL_Driver/Src/stm32f4xx_ll_fmc.c ****   
1144:../Drivers/STM32F4xx_HAL_Driver/Src/stm32f4xx_ll_fmc.c ****   /* Set FMC_PCCARD device control parameters */
1145:../Drivers/STM32F4xx_HAL_Driver/Src/stm32f4xx_ll_fmc.c ****   tmpr |= (uint32_t)(Init->Waitfeature              |\
 1131              		.loc 1 1145 3 is_stmt 1 view .LVU376
 1132              		.loc 1 1145 26 is_stmt 0 view .LVU377
 1133 000c 0B68     		ldr	r3, [r1]
1146:../Drivers/STM32F4xx_HAL_Driver/Src/stm32f4xx_ll_fmc.c ****                      FMC_NAND_PCC_MEM_BUS_WIDTH_16  |\
 1134              		.loc 1 1146 53 view .LVU378
 1135 000e 4C68     		ldr	r4, [r1, #4]
 1136 0010 43EA4423 		orr	r3, r3, r4, lsl #9
ARM GAS  /tmp/cc2u48vv.s 			page 42


1147:../Drivers/STM32F4xx_HAL_Driver/Src/stm32f4xx_ll_fmc.c ****                     (Init->TCLRSetupTime << 9U)     |\
1148:../Drivers/STM32F4xx_HAL_Driver/Src/stm32f4xx_ll_fmc.c ****                     (Init->TARSetupTime << 13U));
 1137              		.loc 1 1148 26 view .LVU379
 1138 0014 8968     		ldr	r1, [r1, #8]
 1139              	.LVL89:
1145:../Drivers/STM32F4xx_HAL_Driver/Src/stm32f4xx_ll_fmc.c ****                      FMC_NAND_PCC_MEM_BUS_WIDTH_16  |\
 1140              		.loc 1 1145 11 view .LVU380
 1141 0016 43EA4133 		orr	r3, r3, r1, lsl #13
1145:../Drivers/STM32F4xx_HAL_Driver/Src/stm32f4xx_ll_fmc.c ****                      FMC_NAND_PCC_MEM_BUS_WIDTH_16  |\
 1142              		.loc 1 1145 8 view .LVU381
 1143 001a 1343     		orrs	r3, r3, r2
 1144 001c 43F01003 		orr	r3, r3, #16
 1145              	.LVL90:
1149:../Drivers/STM32F4xx_HAL_Driver/Src/stm32f4xx_ll_fmc.c ****   
1150:../Drivers/STM32F4xx_HAL_Driver/Src/stm32f4xx_ll_fmc.c ****   Device->PCR4 = tmpr;
 1146              		.loc 1 1150 3 is_stmt 1 view .LVU382
 1147              		.loc 1 1150 16 is_stmt 0 view .LVU383
 1148 0020 0360     		str	r3, [r0]
1151:../Drivers/STM32F4xx_HAL_Driver/Src/stm32f4xx_ll_fmc.c ****   
1152:../Drivers/STM32F4xx_HAL_Driver/Src/stm32f4xx_ll_fmc.c ****   return HAL_OK;
 1149              		.loc 1 1152 3 is_stmt 1 view .LVU384
1153:../Drivers/STM32F4xx_HAL_Driver/Src/stm32f4xx_ll_fmc.c **** }
 1150              		.loc 1 1153 1 is_stmt 0 view .LVU385
 1151 0022 0020     		movs	r0, #0
 1152              	.LVL91:
 1153              		.loc 1 1153 1 view .LVU386
 1154 0024 5DF8044B 		ldr	r4, [sp], #4
 1155              	.LCFI17:
 1156              		.cfi_restore 4
 1157              		.cfi_def_cfa_offset 0
 1158 0028 7047     		bx	lr
 1159              		.cfi_endproc
 1160              	.LFE143:
 1162              		.section	.text.FMC_PCCARD_CommonSpace_Timing_Init,"ax",%progbits
 1163              		.align	1
 1164              		.global	FMC_PCCARD_CommonSpace_Timing_Init
 1165              		.syntax unified
 1166              		.thumb
 1167              		.thumb_func
 1168              		.fpu fpv4-sp-d16
 1170              	FMC_PCCARD_CommonSpace_Timing_Init:
 1171              	.LVL92:
 1172              	.LFB144:
1154:../Drivers/STM32F4xx_HAL_Driver/Src/stm32f4xx_ll_fmc.c **** 
1155:../Drivers/STM32F4xx_HAL_Driver/Src/stm32f4xx_ll_fmc.c **** /**
1156:../Drivers/STM32F4xx_HAL_Driver/Src/stm32f4xx_ll_fmc.c ****   * @brief  Initializes the FMC_PCCARD Common space Timing according to the specified
1157:../Drivers/STM32F4xx_HAL_Driver/Src/stm32f4xx_ll_fmc.c ****   *         parameters in the FMC_NAND_PCC_TimingTypeDef
1158:../Drivers/STM32F4xx_HAL_Driver/Src/stm32f4xx_ll_fmc.c ****   * @param  Device Pointer to PCCARD device instance
1159:../Drivers/STM32F4xx_HAL_Driver/Src/stm32f4xx_ll_fmc.c ****   * @param  Timing Pointer to PCCARD timing structure 
1160:../Drivers/STM32F4xx_HAL_Driver/Src/stm32f4xx_ll_fmc.c ****   * @retval HAL status
1161:../Drivers/STM32F4xx_HAL_Driver/Src/stm32f4xx_ll_fmc.c ****   */
1162:../Drivers/STM32F4xx_HAL_Driver/Src/stm32f4xx_ll_fmc.c **** HAL_StatusTypeDef FMC_PCCARD_CommonSpace_Timing_Init(FMC_PCCARD_TypeDef *Device, FMC_NAND_PCC_Timin
1163:../Drivers/STM32F4xx_HAL_Driver/Src/stm32f4xx_ll_fmc.c **** {
 1173              		.loc 1 1163 1 is_stmt 1 view -0
 1174              		.cfi_startproc
 1175              		@ args = 0, pretend = 0, frame = 0
 1176              		@ frame_needed = 0, uses_anonymous_args = 0
ARM GAS  /tmp/cc2u48vv.s 			page 43


 1177              		@ link register save eliminated.
1164:../Drivers/STM32F4xx_HAL_Driver/Src/stm32f4xx_ll_fmc.c ****   uint32_t tmpr = 0U;
 1178              		.loc 1 1164 3 view .LVU388
1165:../Drivers/STM32F4xx_HAL_Driver/Src/stm32f4xx_ll_fmc.c ****   
1166:../Drivers/STM32F4xx_HAL_Driver/Src/stm32f4xx_ll_fmc.c ****   /* Check the parameters */
1167:../Drivers/STM32F4xx_HAL_Driver/Src/stm32f4xx_ll_fmc.c ****   assert_param(IS_FMC_PCCARD_DEVICE(Device));
 1179              		.loc 1 1167 3 view .LVU389
1168:../Drivers/STM32F4xx_HAL_Driver/Src/stm32f4xx_ll_fmc.c ****   assert_param(IS_FMC_SETUP_TIME(Timing->SetupTime));
 1180              		.loc 1 1168 3 view .LVU390
1169:../Drivers/STM32F4xx_HAL_Driver/Src/stm32f4xx_ll_fmc.c ****   assert_param(IS_FMC_WAIT_TIME(Timing->WaitSetupTime));
 1181              		.loc 1 1169 3 view .LVU391
1170:../Drivers/STM32F4xx_HAL_Driver/Src/stm32f4xx_ll_fmc.c ****   assert_param(IS_FMC_HOLD_TIME(Timing->HoldSetupTime));
 1182              		.loc 1 1170 3 view .LVU392
1171:../Drivers/STM32F4xx_HAL_Driver/Src/stm32f4xx_ll_fmc.c ****   assert_param(IS_FMC_HIZ_TIME(Timing->HiZSetupTime));
 1183              		.loc 1 1171 3 view .LVU393
1172:../Drivers/STM32F4xx_HAL_Driver/Src/stm32f4xx_ll_fmc.c **** 
1173:../Drivers/STM32F4xx_HAL_Driver/Src/stm32f4xx_ll_fmc.c ****   /* Get PCCARD common space timing register value */
1174:../Drivers/STM32F4xx_HAL_Driver/Src/stm32f4xx_ll_fmc.c ****   tmpr = Device->PMEM4;
 1184              		.loc 1 1174 3 view .LVU394
 1185              		.loc 1 1174 8 is_stmt 0 view .LVU395
 1186 0000 8368     		ldr	r3, [r0, #8]
 1187              	.LVL93:
1175:../Drivers/STM32F4xx_HAL_Driver/Src/stm32f4xx_ll_fmc.c ****   
1176:../Drivers/STM32F4xx_HAL_Driver/Src/stm32f4xx_ll_fmc.c ****   /* Clear MEMSETx, MEMWAITx, MEMHOLDx and MEMHIZx bits */
1177:../Drivers/STM32F4xx_HAL_Driver/Src/stm32f4xx_ll_fmc.c ****   tmpr &= ((uint32_t)~(FMC_PMEM4_MEMSET4  | FMC_PMEM4_MEMWAIT4 | FMC_PMEM4_MEMHOLD4 | \
 1188              		.loc 1 1177 3 is_stmt 1 view .LVU396
1178:../Drivers/STM32F4xx_HAL_Driver/Src/stm32f4xx_ll_fmc.c ****                        FMC_PMEM4_MEMHIZ4)); 
1179:../Drivers/STM32F4xx_HAL_Driver/Src/stm32f4xx_ll_fmc.c ****   /* Set PCCARD timing parameters */
1180:../Drivers/STM32F4xx_HAL_Driver/Src/stm32f4xx_ll_fmc.c ****   tmpr |= (uint32_t)(Timing->SetupTime                  |\
 1189              		.loc 1 1180 3 view .LVU397
 1190              		.loc 1 1180 28 is_stmt 0 view .LVU398
 1191 0002 0B68     		ldr	r3, [r1]
1181:../Drivers/STM32F4xx_HAL_Driver/Src/stm32f4xx_ll_fmc.c ****                     ((Timing->WaitSetupTime) << 8U)     |\
 1192              		.loc 1 1181 29 view .LVU399
 1193 0004 4A68     		ldr	r2, [r1, #4]
1180:../Drivers/STM32F4xx_HAL_Driver/Src/stm32f4xx_ll_fmc.c ****                     ((Timing->WaitSetupTime) << 8U)     |\
 1194              		.loc 1 1180 57 view .LVU400
 1195 0006 43EA0223 		orr	r3, r3, r2, lsl #8
1182:../Drivers/STM32F4xx_HAL_Driver/Src/stm32f4xx_ll_fmc.c ****                     ((Timing->HoldSetupTime) << 16U)    |\
 1196              		.loc 1 1182 29 view .LVU401
 1197 000a 8A68     		ldr	r2, [r1, #8]
1181:../Drivers/STM32F4xx_HAL_Driver/Src/stm32f4xx_ll_fmc.c ****                     ((Timing->WaitSetupTime) << 8U)     |\
 1198              		.loc 1 1181 57 view .LVU402
 1199 000c 43EA0243 		orr	r3, r3, r2, lsl #16
1183:../Drivers/STM32F4xx_HAL_Driver/Src/stm32f4xx_ll_fmc.c ****                     ((Timing->HiZSetupTime) << 24U)); 
 1200              		.loc 1 1183 29 view .LVU403
 1201 0010 CA68     		ldr	r2, [r1, #12]
1182:../Drivers/STM32F4xx_HAL_Driver/Src/stm32f4xx_ll_fmc.c ****                     ((Timing->HoldSetupTime) << 16U)    |\
 1202              		.loc 1 1182 57 view .LVU404
 1203 0012 43EA0263 		orr	r3, r3, r2, lsl #24
 1204              	.LVL94:
1184:../Drivers/STM32F4xx_HAL_Driver/Src/stm32f4xx_ll_fmc.c **** 
1185:../Drivers/STM32F4xx_HAL_Driver/Src/stm32f4xx_ll_fmc.c ****   Device->PMEM4 = tmpr;
 1205              		.loc 1 1185 3 is_stmt 1 view .LVU405
 1206              		.loc 1 1185 17 is_stmt 0 view .LVU406
 1207 0016 8360     		str	r3, [r0, #8]
1186:../Drivers/STM32F4xx_HAL_Driver/Src/stm32f4xx_ll_fmc.c ****   
ARM GAS  /tmp/cc2u48vv.s 			page 44


1187:../Drivers/STM32F4xx_HAL_Driver/Src/stm32f4xx_ll_fmc.c ****   return HAL_OK;  
 1208              		.loc 1 1187 3 is_stmt 1 view .LVU407
1188:../Drivers/STM32F4xx_HAL_Driver/Src/stm32f4xx_ll_fmc.c **** }
 1209              		.loc 1 1188 1 is_stmt 0 view .LVU408
 1210 0018 0020     		movs	r0, #0
 1211              	.LVL95:
 1212              		.loc 1 1188 1 view .LVU409
 1213 001a 7047     		bx	lr
 1214              		.cfi_endproc
 1215              	.LFE144:
 1217              		.section	.text.FMC_PCCARD_AttributeSpace_Timing_Init,"ax",%progbits
 1218              		.align	1
 1219              		.global	FMC_PCCARD_AttributeSpace_Timing_Init
 1220              		.syntax unified
 1221              		.thumb
 1222              		.thumb_func
 1223              		.fpu fpv4-sp-d16
 1225              	FMC_PCCARD_AttributeSpace_Timing_Init:
 1226              	.LVL96:
 1227              	.LFB145:
1189:../Drivers/STM32F4xx_HAL_Driver/Src/stm32f4xx_ll_fmc.c **** 
1190:../Drivers/STM32F4xx_HAL_Driver/Src/stm32f4xx_ll_fmc.c **** /**
1191:../Drivers/STM32F4xx_HAL_Driver/Src/stm32f4xx_ll_fmc.c ****   * @brief  Initializes the FMC_PCCARD Attribute space Timing according to the specified
1192:../Drivers/STM32F4xx_HAL_Driver/Src/stm32f4xx_ll_fmc.c ****   *         parameters in the FMC_NAND_PCC_TimingTypeDef
1193:../Drivers/STM32F4xx_HAL_Driver/Src/stm32f4xx_ll_fmc.c ****   * @param  Device Pointer to PCCARD device instance
1194:../Drivers/STM32F4xx_HAL_Driver/Src/stm32f4xx_ll_fmc.c ****   * @param  Timing Pointer to PCCARD timing structure  
1195:../Drivers/STM32F4xx_HAL_Driver/Src/stm32f4xx_ll_fmc.c ****   * @retval HAL status
1196:../Drivers/STM32F4xx_HAL_Driver/Src/stm32f4xx_ll_fmc.c ****   */
1197:../Drivers/STM32F4xx_HAL_Driver/Src/stm32f4xx_ll_fmc.c **** HAL_StatusTypeDef FMC_PCCARD_AttributeSpace_Timing_Init(FMC_PCCARD_TypeDef *Device, FMC_NAND_PCC_Ti
1198:../Drivers/STM32F4xx_HAL_Driver/Src/stm32f4xx_ll_fmc.c **** {
 1228              		.loc 1 1198 1 is_stmt 1 view -0
 1229              		.cfi_startproc
 1230              		@ args = 0, pretend = 0, frame = 0
 1231              		@ frame_needed = 0, uses_anonymous_args = 0
 1232              		@ link register save eliminated.
1199:../Drivers/STM32F4xx_HAL_Driver/Src/stm32f4xx_ll_fmc.c ****   uint32_t tmpr = 0U;
 1233              		.loc 1 1199 3 view .LVU411
1200:../Drivers/STM32F4xx_HAL_Driver/Src/stm32f4xx_ll_fmc.c ****   
1201:../Drivers/STM32F4xx_HAL_Driver/Src/stm32f4xx_ll_fmc.c ****   /* Check the parameters */ 
1202:../Drivers/STM32F4xx_HAL_Driver/Src/stm32f4xx_ll_fmc.c ****   assert_param(IS_FMC_PCCARD_DEVICE(Device)); 
 1234              		.loc 1 1202 3 view .LVU412
1203:../Drivers/STM32F4xx_HAL_Driver/Src/stm32f4xx_ll_fmc.c ****   assert_param(IS_FMC_SETUP_TIME(Timing->SetupTime));
 1235              		.loc 1 1203 3 view .LVU413
1204:../Drivers/STM32F4xx_HAL_Driver/Src/stm32f4xx_ll_fmc.c ****   assert_param(IS_FMC_WAIT_TIME(Timing->WaitSetupTime));
 1236              		.loc 1 1204 3 view .LVU414
1205:../Drivers/STM32F4xx_HAL_Driver/Src/stm32f4xx_ll_fmc.c ****   assert_param(IS_FMC_HOLD_TIME(Timing->HoldSetupTime));
 1237              		.loc 1 1205 3 view .LVU415
1206:../Drivers/STM32F4xx_HAL_Driver/Src/stm32f4xx_ll_fmc.c ****   assert_param(IS_FMC_HIZ_TIME(Timing->HiZSetupTime));
 1238              		.loc 1 1206 3 view .LVU416
1207:../Drivers/STM32F4xx_HAL_Driver/Src/stm32f4xx_ll_fmc.c **** 
1208:../Drivers/STM32F4xx_HAL_Driver/Src/stm32f4xx_ll_fmc.c ****   /* Get PCCARD timing parameters */
1209:../Drivers/STM32F4xx_HAL_Driver/Src/stm32f4xx_ll_fmc.c ****   tmpr = Device->PATT4;
 1239              		.loc 1 1209 3 view .LVU417
 1240              		.loc 1 1209 8 is_stmt 0 view .LVU418
 1241 0000 C368     		ldr	r3, [r0, #12]
 1242              	.LVL97:
1210:../Drivers/STM32F4xx_HAL_Driver/Src/stm32f4xx_ll_fmc.c **** 
ARM GAS  /tmp/cc2u48vv.s 			page 45


1211:../Drivers/STM32F4xx_HAL_Driver/Src/stm32f4xx_ll_fmc.c ****   /* Clear ATTSETx, ATTWAITx, ATTHOLDx and ATTHIZx bits */
1212:../Drivers/STM32F4xx_HAL_Driver/Src/stm32f4xx_ll_fmc.c ****   tmpr &= ((uint32_t)~(FMC_PATT4_ATTSET4  | FMC_PATT4_ATTWAIT4 | FMC_PATT4_ATTHOLD4 | \
 1243              		.loc 1 1212 3 is_stmt 1 view .LVU419
1213:../Drivers/STM32F4xx_HAL_Driver/Src/stm32f4xx_ll_fmc.c ****                        FMC_PATT4_ATTHIZ4));
1214:../Drivers/STM32F4xx_HAL_Driver/Src/stm32f4xx_ll_fmc.c ****   
1215:../Drivers/STM32F4xx_HAL_Driver/Src/stm32f4xx_ll_fmc.c ****   /* Set PCCARD timing parameters */
1216:../Drivers/STM32F4xx_HAL_Driver/Src/stm32f4xx_ll_fmc.c ****   tmpr |= (uint32_t)(Timing->SetupTime                 |\
 1244              		.loc 1 1216 3 view .LVU420
 1245              		.loc 1 1216 28 is_stmt 0 view .LVU421
 1246 0002 0B68     		ldr	r3, [r1]
1217:../Drivers/STM32F4xx_HAL_Driver/Src/stm32f4xx_ll_fmc.c ****                    ((Timing->WaitSetupTime) << 8U)     |\
 1247              		.loc 1 1217 28 view .LVU422
 1248 0004 4A68     		ldr	r2, [r1, #4]
1216:../Drivers/STM32F4xx_HAL_Driver/Src/stm32f4xx_ll_fmc.c ****                    ((Timing->WaitSetupTime) << 8U)     |\
 1249              		.loc 1 1216 56 view .LVU423
 1250 0006 43EA0223 		orr	r3, r3, r2, lsl #8
1218:../Drivers/STM32F4xx_HAL_Driver/Src/stm32f4xx_ll_fmc.c ****                    ((Timing->HoldSetupTime) << 16U)    |\
 1251              		.loc 1 1218 28 view .LVU424
 1252 000a 8A68     		ldr	r2, [r1, #8]
1217:../Drivers/STM32F4xx_HAL_Driver/Src/stm32f4xx_ll_fmc.c ****                    ((Timing->WaitSetupTime) << 8U)     |\
 1253              		.loc 1 1217 56 view .LVU425
 1254 000c 43EA0243 		orr	r3, r3, r2, lsl #16
1219:../Drivers/STM32F4xx_HAL_Driver/Src/stm32f4xx_ll_fmc.c ****                    ((Timing->HiZSetupTime) << 24U));
 1255              		.loc 1 1219 28 view .LVU426
 1256 0010 CA68     		ldr	r2, [r1, #12]
1218:../Drivers/STM32F4xx_HAL_Driver/Src/stm32f4xx_ll_fmc.c ****                    ((Timing->HoldSetupTime) << 16U)    |\
 1257              		.loc 1 1218 56 view .LVU427
 1258 0012 43EA0263 		orr	r3, r3, r2, lsl #24
 1259              	.LVL98:
1220:../Drivers/STM32F4xx_HAL_Driver/Src/stm32f4xx_ll_fmc.c ****   Device->PATT4 = tmpr;
 1260              		.loc 1 1220 3 is_stmt 1 view .LVU428
 1261              		.loc 1 1220 17 is_stmt 0 view .LVU429
 1262 0016 C360     		str	r3, [r0, #12]
1221:../Drivers/STM32F4xx_HAL_Driver/Src/stm32f4xx_ll_fmc.c **** 
1222:../Drivers/STM32F4xx_HAL_Driver/Src/stm32f4xx_ll_fmc.c ****   return HAL_OK;
 1263              		.loc 1 1222 3 is_stmt 1 view .LVU430
1223:../Drivers/STM32F4xx_HAL_Driver/Src/stm32f4xx_ll_fmc.c **** }
 1264              		.loc 1 1223 1 is_stmt 0 view .LVU431
 1265 0018 0020     		movs	r0, #0
 1266              	.LVL99:
 1267              		.loc 1 1223 1 view .LVU432
 1268 001a 7047     		bx	lr
 1269              		.cfi_endproc
 1270              	.LFE145:
 1272              		.section	.text.FMC_PCCARD_IOSpace_Timing_Init,"ax",%progbits
 1273              		.align	1
 1274              		.global	FMC_PCCARD_IOSpace_Timing_Init
 1275              		.syntax unified
 1276              		.thumb
 1277              		.thumb_func
 1278              		.fpu fpv4-sp-d16
 1280              	FMC_PCCARD_IOSpace_Timing_Init:
 1281              	.LVL100:
 1282              	.LFB146:
1224:../Drivers/STM32F4xx_HAL_Driver/Src/stm32f4xx_ll_fmc.c **** 
1225:../Drivers/STM32F4xx_HAL_Driver/Src/stm32f4xx_ll_fmc.c **** /**
1226:../Drivers/STM32F4xx_HAL_Driver/Src/stm32f4xx_ll_fmc.c ****   * @brief  Initializes the FMC_PCCARD IO space Timing according to the specified
ARM GAS  /tmp/cc2u48vv.s 			page 46


1227:../Drivers/STM32F4xx_HAL_Driver/Src/stm32f4xx_ll_fmc.c ****   *         parameters in the FMC_NAND_PCC_TimingTypeDef
1228:../Drivers/STM32F4xx_HAL_Driver/Src/stm32f4xx_ll_fmc.c ****   * @param  Device Pointer to PCCARD device instance
1229:../Drivers/STM32F4xx_HAL_Driver/Src/stm32f4xx_ll_fmc.c ****   * @param  Timing Pointer to PCCARD timing structure  
1230:../Drivers/STM32F4xx_HAL_Driver/Src/stm32f4xx_ll_fmc.c ****   * @retval HAL status
1231:../Drivers/STM32F4xx_HAL_Driver/Src/stm32f4xx_ll_fmc.c ****   */
1232:../Drivers/STM32F4xx_HAL_Driver/Src/stm32f4xx_ll_fmc.c **** HAL_StatusTypeDef FMC_PCCARD_IOSpace_Timing_Init(FMC_PCCARD_TypeDef *Device, FMC_NAND_PCC_TimingTyp
1233:../Drivers/STM32F4xx_HAL_Driver/Src/stm32f4xx_ll_fmc.c **** {
 1283              		.loc 1 1233 1 is_stmt 1 view -0
 1284              		.cfi_startproc
 1285              		@ args = 0, pretend = 0, frame = 0
 1286              		@ frame_needed = 0, uses_anonymous_args = 0
 1287              		@ link register save eliminated.
1234:../Drivers/STM32F4xx_HAL_Driver/Src/stm32f4xx_ll_fmc.c ****   uint32_t tmpr = 0;
 1288              		.loc 1 1234 3 view .LVU434
1235:../Drivers/STM32F4xx_HAL_Driver/Src/stm32f4xx_ll_fmc.c ****   
1236:../Drivers/STM32F4xx_HAL_Driver/Src/stm32f4xx_ll_fmc.c ****   /* Check the parameters */  
1237:../Drivers/STM32F4xx_HAL_Driver/Src/stm32f4xx_ll_fmc.c ****   assert_param(IS_FMC_PCCARD_DEVICE(Device));
 1289              		.loc 1 1237 3 view .LVU435
1238:../Drivers/STM32F4xx_HAL_Driver/Src/stm32f4xx_ll_fmc.c ****   assert_param(IS_FMC_SETUP_TIME(Timing->SetupTime));
 1290              		.loc 1 1238 3 view .LVU436
1239:../Drivers/STM32F4xx_HAL_Driver/Src/stm32f4xx_ll_fmc.c ****   assert_param(IS_FMC_WAIT_TIME(Timing->WaitSetupTime));
 1291              		.loc 1 1239 3 view .LVU437
1240:../Drivers/STM32F4xx_HAL_Driver/Src/stm32f4xx_ll_fmc.c ****   assert_param(IS_FMC_HOLD_TIME(Timing->HoldSetupTime));
 1292              		.loc 1 1240 3 view .LVU438
1241:../Drivers/STM32F4xx_HAL_Driver/Src/stm32f4xx_ll_fmc.c ****   assert_param(IS_FMC_HIZ_TIME(Timing->HiZSetupTime));
 1293              		.loc 1 1241 3 view .LVU439
1242:../Drivers/STM32F4xx_HAL_Driver/Src/stm32f4xx_ll_fmc.c **** 
1243:../Drivers/STM32F4xx_HAL_Driver/Src/stm32f4xx_ll_fmc.c ****   /* Get FMC_PCCARD device timing parameters */
1244:../Drivers/STM32F4xx_HAL_Driver/Src/stm32f4xx_ll_fmc.c ****   tmpr = Device->PIO4;
 1294              		.loc 1 1244 3 view .LVU440
 1295              		.loc 1 1244 8 is_stmt 0 view .LVU441
 1296 0000 0369     		ldr	r3, [r0, #16]
 1297              	.LVL101:
1245:../Drivers/STM32F4xx_HAL_Driver/Src/stm32f4xx_ll_fmc.c **** 
1246:../Drivers/STM32F4xx_HAL_Driver/Src/stm32f4xx_ll_fmc.c ****   /* Clear IOSET4, IOWAIT4, IOHOLD4 and IOHIZ4 bits */
1247:../Drivers/STM32F4xx_HAL_Driver/Src/stm32f4xx_ll_fmc.c ****   tmpr &= ((uint32_t)~(FMC_PIO4_IOSET4  | FMC_PIO4_IOWAIT4 | FMC_PIO4_IOHOLD4 | \
 1298              		.loc 1 1247 3 is_stmt 1 view .LVU442
1248:../Drivers/STM32F4xx_HAL_Driver/Src/stm32f4xx_ll_fmc.c ****                        FMC_PIO4_IOHIZ4));
1249:../Drivers/STM32F4xx_HAL_Driver/Src/stm32f4xx_ll_fmc.c ****   
1250:../Drivers/STM32F4xx_HAL_Driver/Src/stm32f4xx_ll_fmc.c ****   /* Set FMC_PCCARD device timing parameters */
1251:../Drivers/STM32F4xx_HAL_Driver/Src/stm32f4xx_ll_fmc.c ****   tmpr |= (uint32_t)(Timing->SetupTime                   |\
 1299              		.loc 1 1251 3 view .LVU443
 1300              		.loc 1 1251 28 is_stmt 0 view .LVU444
 1301 0002 0B68     		ldr	r3, [r1]
1252:../Drivers/STM32F4xx_HAL_Driver/Src/stm32f4xx_ll_fmc.c ****                      ((Timing->WaitSetupTime) << 8U)     |\
 1302              		.loc 1 1252 30 view .LVU445
 1303 0004 4A68     		ldr	r2, [r1, #4]
1251:../Drivers/STM32F4xx_HAL_Driver/Src/stm32f4xx_ll_fmc.c ****                      ((Timing->WaitSetupTime) << 8U)     |\
 1304              		.loc 1 1251 58 view .LVU446
 1305 0006 43EA0223 		orr	r3, r3, r2, lsl #8
1253:../Drivers/STM32F4xx_HAL_Driver/Src/stm32f4xx_ll_fmc.c ****                      ((Timing->HoldSetupTime) << 16U)    |\
 1306              		.loc 1 1253 30 view .LVU447
 1307 000a 8A68     		ldr	r2, [r1, #8]
1252:../Drivers/STM32F4xx_HAL_Driver/Src/stm32f4xx_ll_fmc.c ****                      ((Timing->WaitSetupTime) << 8U)     |\
 1308              		.loc 1 1252 58 view .LVU448
 1309 000c 43EA0243 		orr	r3, r3, r2, lsl #16
1254:../Drivers/STM32F4xx_HAL_Driver/Src/stm32f4xx_ll_fmc.c ****                      ((Timing->HiZSetupTime) << 24U));   
ARM GAS  /tmp/cc2u48vv.s 			page 47


 1310              		.loc 1 1254 30 view .LVU449
 1311 0010 CA68     		ldr	r2, [r1, #12]
1253:../Drivers/STM32F4xx_HAL_Driver/Src/stm32f4xx_ll_fmc.c ****                      ((Timing->HoldSetupTime) << 16U)    |\
 1312              		.loc 1 1253 58 view .LVU450
 1313 0012 43EA0263 		orr	r3, r3, r2, lsl #24
 1314              	.LVL102:
1255:../Drivers/STM32F4xx_HAL_Driver/Src/stm32f4xx_ll_fmc.c ****   
1256:../Drivers/STM32F4xx_HAL_Driver/Src/stm32f4xx_ll_fmc.c ****   Device->PIO4 = tmpr;
 1315              		.loc 1 1256 3 is_stmt 1 view .LVU451
 1316              		.loc 1 1256 16 is_stmt 0 view .LVU452
 1317 0016 0361     		str	r3, [r0, #16]
1257:../Drivers/STM32F4xx_HAL_Driver/Src/stm32f4xx_ll_fmc.c ****  
1258:../Drivers/STM32F4xx_HAL_Driver/Src/stm32f4xx_ll_fmc.c ****   return HAL_OK;
 1318              		.loc 1 1258 3 is_stmt 1 view .LVU453
1259:../Drivers/STM32F4xx_HAL_Driver/Src/stm32f4xx_ll_fmc.c **** }
 1319              		.loc 1 1259 1 is_stmt 0 view .LVU454
 1320 0018 0020     		movs	r0, #0
 1321              	.LVL103:
 1322              		.loc 1 1259 1 view .LVU455
 1323 001a 7047     		bx	lr
 1324              		.cfi_endproc
 1325              	.LFE146:
 1327              		.section	.text.FMC_PCCARD_DeInit,"ax",%progbits
 1328              		.align	1
 1329              		.global	FMC_PCCARD_DeInit
 1330              		.syntax unified
 1331              		.thumb
 1332              		.thumb_func
 1333              		.fpu fpv4-sp-d16
 1335              	FMC_PCCARD_DeInit:
 1336              	.LVL104:
 1337              	.LFB147:
1260:../Drivers/STM32F4xx_HAL_Driver/Src/stm32f4xx_ll_fmc.c ****                                            
1261:../Drivers/STM32F4xx_HAL_Driver/Src/stm32f4xx_ll_fmc.c **** /**
1262:../Drivers/STM32F4xx_HAL_Driver/Src/stm32f4xx_ll_fmc.c ****   * @brief  DeInitializes the FMC_PCCARD device 
1263:../Drivers/STM32F4xx_HAL_Driver/Src/stm32f4xx_ll_fmc.c ****   * @param  Device Pointer to PCCARD device instance
1264:../Drivers/STM32F4xx_HAL_Driver/Src/stm32f4xx_ll_fmc.c ****   * @retval HAL status
1265:../Drivers/STM32F4xx_HAL_Driver/Src/stm32f4xx_ll_fmc.c ****   */
1266:../Drivers/STM32F4xx_HAL_Driver/Src/stm32f4xx_ll_fmc.c **** HAL_StatusTypeDef FMC_PCCARD_DeInit(FMC_PCCARD_TypeDef *Device)
1267:../Drivers/STM32F4xx_HAL_Driver/Src/stm32f4xx_ll_fmc.c **** {
 1338              		.loc 1 1267 1 is_stmt 1 view -0
 1339              		.cfi_startproc
 1340              		@ args = 0, pretend = 0, frame = 0
 1341              		@ frame_needed = 0, uses_anonymous_args = 0
 1342              		@ link register save eliminated.
 1343              		.loc 1 1267 1 is_stmt 0 view .LVU457
 1344 0000 0346     		mov	r3, r0
1268:../Drivers/STM32F4xx_HAL_Driver/Src/stm32f4xx_ll_fmc.c ****   /* Check the parameters */  
1269:../Drivers/STM32F4xx_HAL_Driver/Src/stm32f4xx_ll_fmc.c ****   assert_param(IS_FMC_PCCARD_DEVICE(Device));
 1345              		.loc 1 1269 3 is_stmt 1 view .LVU458
1270:../Drivers/STM32F4xx_HAL_Driver/Src/stm32f4xx_ll_fmc.c ****     
1271:../Drivers/STM32F4xx_HAL_Driver/Src/stm32f4xx_ll_fmc.c ****   /* Disable the FMC_PCCARD device */
1272:../Drivers/STM32F4xx_HAL_Driver/Src/stm32f4xx_ll_fmc.c ****   __FMC_PCCARD_DISABLE(Device);
 1346              		.loc 1 1272 3 view .LVU459
 1347 0002 0268     		ldr	r2, [r0]
 1348 0004 22F00402 		bic	r2, r2, #4
 1349 0008 0260     		str	r2, [r0]
ARM GAS  /tmp/cc2u48vv.s 			page 48


1273:../Drivers/STM32F4xx_HAL_Driver/Src/stm32f4xx_ll_fmc.c ****   
1274:../Drivers/STM32F4xx_HAL_Driver/Src/stm32f4xx_ll_fmc.c ****   /* De-initialize the FMC_PCCARD device */
1275:../Drivers/STM32F4xx_HAL_Driver/Src/stm32f4xx_ll_fmc.c ****   Device->PCR4    = 0x00000018U; 
 1350              		.loc 1 1275 3 view .LVU460
 1351              		.loc 1 1275 19 is_stmt 0 view .LVU461
 1352 000a 1822     		movs	r2, #24
 1353 000c 0260     		str	r2, [r0]
1276:../Drivers/STM32F4xx_HAL_Driver/Src/stm32f4xx_ll_fmc.c ****   Device->SR4     = 0x00000000U;	
 1354              		.loc 1 1276 3 is_stmt 1 view .LVU462
 1355              		.loc 1 1276 19 is_stmt 0 view .LVU463
 1356 000e 0020     		movs	r0, #0
 1357              	.LVL105:
 1358              		.loc 1 1276 19 view .LVU464
 1359 0010 5860     		str	r0, [r3, #4]
1277:../Drivers/STM32F4xx_HAL_Driver/Src/stm32f4xx_ll_fmc.c ****   Device->PMEM4   = 0xFCFCFCFCU;
 1360              		.loc 1 1277 3 is_stmt 1 view .LVU465
 1361              		.loc 1 1277 19 is_stmt 0 view .LVU466
 1362 0012 4FF0FC32 		mov	r2, #-50529028
 1363 0016 9A60     		str	r2, [r3, #8]
1278:../Drivers/STM32F4xx_HAL_Driver/Src/stm32f4xx_ll_fmc.c ****   Device->PATT4   = 0xFCFCFCFCU;
 1364              		.loc 1 1278 3 is_stmt 1 view .LVU467
 1365              		.loc 1 1278 19 is_stmt 0 view .LVU468
 1366 0018 DA60     		str	r2, [r3, #12]
1279:../Drivers/STM32F4xx_HAL_Driver/Src/stm32f4xx_ll_fmc.c ****   Device->PIO4    = 0xFCFCFCFCU;
 1367              		.loc 1 1279 3 is_stmt 1 view .LVU469
 1368              		.loc 1 1279 19 is_stmt 0 view .LVU470
 1369 001a 1A61     		str	r2, [r3, #16]
1280:../Drivers/STM32F4xx_HAL_Driver/Src/stm32f4xx_ll_fmc.c ****   
1281:../Drivers/STM32F4xx_HAL_Driver/Src/stm32f4xx_ll_fmc.c ****   return HAL_OK;
 1370              		.loc 1 1281 3 is_stmt 1 view .LVU471
1282:../Drivers/STM32F4xx_HAL_Driver/Src/stm32f4xx_ll_fmc.c **** }
 1371              		.loc 1 1282 1 is_stmt 0 view .LVU472
 1372 001c 7047     		bx	lr
 1373              		.cfi_endproc
 1374              	.LFE147:
 1376              		.section	.text.FMC_SDRAM_Init,"ax",%progbits
 1377              		.align	1
 1378              		.global	FMC_SDRAM_Init
 1379              		.syntax unified
 1380              		.thumb
 1381              		.thumb_func
 1382              		.fpu fpv4-sp-d16
 1384              	FMC_SDRAM_Init:
 1385              	.LVL106:
 1386              	.LFB148:
1283:../Drivers/STM32F4xx_HAL_Driver/Src/stm32f4xx_ll_fmc.c **** 
1284:../Drivers/STM32F4xx_HAL_Driver/Src/stm32f4xx_ll_fmc.c **** /**
1285:../Drivers/STM32F4xx_HAL_Driver/Src/stm32f4xx_ll_fmc.c ****   * @}
1286:../Drivers/STM32F4xx_HAL_Driver/Src/stm32f4xx_ll_fmc.c ****   */
1287:../Drivers/STM32F4xx_HAL_Driver/Src/stm32f4xx_ll_fmc.c **** #endif /* STM32F427xx || STM32F437xx || STM32F429xx || STM32F439xx */
1288:../Drivers/STM32F4xx_HAL_Driver/Src/stm32f4xx_ll_fmc.c **** 
1289:../Drivers/STM32F4xx_HAL_Driver/Src/stm32f4xx_ll_fmc.c **** 
1290:../Drivers/STM32F4xx_HAL_Driver/Src/stm32f4xx_ll_fmc.c **** /** @addtogroup FMC_LL_SDRAM
1291:../Drivers/STM32F4xx_HAL_Driver/Src/stm32f4xx_ll_fmc.c ****   * @brief    SDRAM Controller functions 
1292:../Drivers/STM32F4xx_HAL_Driver/Src/stm32f4xx_ll_fmc.c ****   *
1293:../Drivers/STM32F4xx_HAL_Driver/Src/stm32f4xx_ll_fmc.c ****   @verbatim 
1294:../Drivers/STM32F4xx_HAL_Driver/Src/stm32f4xx_ll_fmc.c ****   ==============================================================================
ARM GAS  /tmp/cc2u48vv.s 			page 49


1295:../Drivers/STM32F4xx_HAL_Driver/Src/stm32f4xx_ll_fmc.c ****                      ##### How to use SDRAM device driver #####
1296:../Drivers/STM32F4xx_HAL_Driver/Src/stm32f4xx_ll_fmc.c ****   ==============================================================================
1297:../Drivers/STM32F4xx_HAL_Driver/Src/stm32f4xx_ll_fmc.c ****   [..] 
1298:../Drivers/STM32F4xx_HAL_Driver/Src/stm32f4xx_ll_fmc.c ****     This driver contains a set of APIs to interface with the FMC SDRAM banks in order
1299:../Drivers/STM32F4xx_HAL_Driver/Src/stm32f4xx_ll_fmc.c ****     to run the SDRAM external devices.
1300:../Drivers/STM32F4xx_HAL_Driver/Src/stm32f4xx_ll_fmc.c ****     
1301:../Drivers/STM32F4xx_HAL_Driver/Src/stm32f4xx_ll_fmc.c ****     (+) FMC SDRAM bank reset using the function FMC_SDRAM_DeInit() 
1302:../Drivers/STM32F4xx_HAL_Driver/Src/stm32f4xx_ll_fmc.c ****     (+) FMC SDRAM bank control configuration using the function FMC_SDRAM_Init()
1303:../Drivers/STM32F4xx_HAL_Driver/Src/stm32f4xx_ll_fmc.c ****     (+) FMC SDRAM bank timing configuration using the function FMC_SDRAM_Timing_Init()
1304:../Drivers/STM32F4xx_HAL_Driver/Src/stm32f4xx_ll_fmc.c ****     (+) FMC SDRAM bank enable/disable write operation using the functions
1305:../Drivers/STM32F4xx_HAL_Driver/Src/stm32f4xx_ll_fmc.c ****         FMC_SDRAM_WriteOperation_Enable()/FMC_SDRAM_WriteOperation_Disable()   
1306:../Drivers/STM32F4xx_HAL_Driver/Src/stm32f4xx_ll_fmc.c ****     (+) FMC SDRAM bank send command using the function FMC_SDRAM_SendCommand()      
1307:../Drivers/STM32F4xx_HAL_Driver/Src/stm32f4xx_ll_fmc.c ****        
1308:../Drivers/STM32F4xx_HAL_Driver/Src/stm32f4xx_ll_fmc.c **** @endverbatim
1309:../Drivers/STM32F4xx_HAL_Driver/Src/stm32f4xx_ll_fmc.c ****   * @{
1310:../Drivers/STM32F4xx_HAL_Driver/Src/stm32f4xx_ll_fmc.c ****   */
1311:../Drivers/STM32F4xx_HAL_Driver/Src/stm32f4xx_ll_fmc.c ****          
1312:../Drivers/STM32F4xx_HAL_Driver/Src/stm32f4xx_ll_fmc.c **** /** @addtogroup FMC_LL_SDRAM_Private_Functions_Group1
1313:../Drivers/STM32F4xx_HAL_Driver/Src/stm32f4xx_ll_fmc.c ****   *  @brief    Initialization and Configuration functions 
1314:../Drivers/STM32F4xx_HAL_Driver/Src/stm32f4xx_ll_fmc.c ****   *
1315:../Drivers/STM32F4xx_HAL_Driver/Src/stm32f4xx_ll_fmc.c **** @verbatim    
1316:../Drivers/STM32F4xx_HAL_Driver/Src/stm32f4xx_ll_fmc.c ****   ==============================================================================
1317:../Drivers/STM32F4xx_HAL_Driver/Src/stm32f4xx_ll_fmc.c ****               ##### Initialization and de_initialization functions #####
1318:../Drivers/STM32F4xx_HAL_Driver/Src/stm32f4xx_ll_fmc.c ****   ==============================================================================
1319:../Drivers/STM32F4xx_HAL_Driver/Src/stm32f4xx_ll_fmc.c ****   [..]  
1320:../Drivers/STM32F4xx_HAL_Driver/Src/stm32f4xx_ll_fmc.c ****     This section provides functions allowing to:
1321:../Drivers/STM32F4xx_HAL_Driver/Src/stm32f4xx_ll_fmc.c ****     (+) Initialize and configure the FMC SDRAM interface
1322:../Drivers/STM32F4xx_HAL_Driver/Src/stm32f4xx_ll_fmc.c ****     (+) De-initialize the FMC SDRAM interface 
1323:../Drivers/STM32F4xx_HAL_Driver/Src/stm32f4xx_ll_fmc.c ****     (+) Configure the FMC clock and associated GPIOs
1324:../Drivers/STM32F4xx_HAL_Driver/Src/stm32f4xx_ll_fmc.c ****         
1325:../Drivers/STM32F4xx_HAL_Driver/Src/stm32f4xx_ll_fmc.c **** @endverbatim
1326:../Drivers/STM32F4xx_HAL_Driver/Src/stm32f4xx_ll_fmc.c ****   * @{
1327:../Drivers/STM32F4xx_HAL_Driver/Src/stm32f4xx_ll_fmc.c ****   */
1328:../Drivers/STM32F4xx_HAL_Driver/Src/stm32f4xx_ll_fmc.c **** 
1329:../Drivers/STM32F4xx_HAL_Driver/Src/stm32f4xx_ll_fmc.c **** /**
1330:../Drivers/STM32F4xx_HAL_Driver/Src/stm32f4xx_ll_fmc.c ****   * @brief  Initializes the FMC_SDRAM device according to the specified
1331:../Drivers/STM32F4xx_HAL_Driver/Src/stm32f4xx_ll_fmc.c ****   *         control parameters in the FMC_SDRAM_InitTypeDef
1332:../Drivers/STM32F4xx_HAL_Driver/Src/stm32f4xx_ll_fmc.c ****   * @param  Device Pointer to SDRAM device instance
1333:../Drivers/STM32F4xx_HAL_Driver/Src/stm32f4xx_ll_fmc.c ****   * @param  Init Pointer to SDRAM Initialization structure   
1334:../Drivers/STM32F4xx_HAL_Driver/Src/stm32f4xx_ll_fmc.c ****   * @retval HAL status
1335:../Drivers/STM32F4xx_HAL_Driver/Src/stm32f4xx_ll_fmc.c ****   */
1336:../Drivers/STM32F4xx_HAL_Driver/Src/stm32f4xx_ll_fmc.c **** HAL_StatusTypeDef FMC_SDRAM_Init(FMC_SDRAM_TypeDef *Device, FMC_SDRAM_InitTypeDef *Init)
1337:../Drivers/STM32F4xx_HAL_Driver/Src/stm32f4xx_ll_fmc.c **** {
 1387              		.loc 1 1337 1 is_stmt 1 view -0
 1388              		.cfi_startproc
 1389              		@ args = 0, pretend = 0, frame = 0
 1390              		@ frame_needed = 0, uses_anonymous_args = 0
 1391              		@ link register save eliminated.
 1392              		.loc 1 1337 1 is_stmt 0 view .LVU474
 1393 0000 30B4     		push	{r4, r5}
 1394              	.LCFI18:
 1395              		.cfi_def_cfa_offset 8
 1396              		.cfi_offset 4, -8
 1397              		.cfi_offset 5, -4
1338:../Drivers/STM32F4xx_HAL_Driver/Src/stm32f4xx_ll_fmc.c ****   uint32_t tmpr1 = 0U;
 1398              		.loc 1 1338 3 is_stmt 1 view .LVU475
 1399              	.LVL107:
ARM GAS  /tmp/cc2u48vv.s 			page 50


1339:../Drivers/STM32F4xx_HAL_Driver/Src/stm32f4xx_ll_fmc.c ****   uint32_t tmpr2 = 0U;
 1400              		.loc 1 1339 3 view .LVU476
1340:../Drivers/STM32F4xx_HAL_Driver/Src/stm32f4xx_ll_fmc.c ****     
1341:../Drivers/STM32F4xx_HAL_Driver/Src/stm32f4xx_ll_fmc.c ****   /* Check the parameters */
1342:../Drivers/STM32F4xx_HAL_Driver/Src/stm32f4xx_ll_fmc.c ****   assert_param(IS_FMC_SDRAM_DEVICE(Device));
 1401              		.loc 1 1342 3 view .LVU477
1343:../Drivers/STM32F4xx_HAL_Driver/Src/stm32f4xx_ll_fmc.c ****   assert_param(IS_FMC_SDRAM_BANK(Init->SDBank));
 1402              		.loc 1 1343 3 view .LVU478
1344:../Drivers/STM32F4xx_HAL_Driver/Src/stm32f4xx_ll_fmc.c ****   assert_param(IS_FMC_COLUMNBITS_NUMBER(Init->ColumnBitsNumber));
 1403              		.loc 1 1344 3 view .LVU479
1345:../Drivers/STM32F4xx_HAL_Driver/Src/stm32f4xx_ll_fmc.c ****   assert_param(IS_FMC_ROWBITS_NUMBER(Init->RowBitsNumber));
 1404              		.loc 1 1345 3 view .LVU480
1346:../Drivers/STM32F4xx_HAL_Driver/Src/stm32f4xx_ll_fmc.c ****   assert_param(IS_FMC_SDMEMORY_WIDTH(Init->MemoryDataWidth));
 1405              		.loc 1 1346 3 view .LVU481
1347:../Drivers/STM32F4xx_HAL_Driver/Src/stm32f4xx_ll_fmc.c ****   assert_param(IS_FMC_INTERNALBANK_NUMBER(Init->InternalBankNumber));
 1406              		.loc 1 1347 3 view .LVU482
1348:../Drivers/STM32F4xx_HAL_Driver/Src/stm32f4xx_ll_fmc.c ****   assert_param(IS_FMC_CAS_LATENCY(Init->CASLatency));
 1407              		.loc 1 1348 3 view .LVU483
1349:../Drivers/STM32F4xx_HAL_Driver/Src/stm32f4xx_ll_fmc.c ****   assert_param(IS_FMC_WRITE_PROTECTION(Init->WriteProtection));
 1408              		.loc 1 1349 3 view .LVU484
1350:../Drivers/STM32F4xx_HAL_Driver/Src/stm32f4xx_ll_fmc.c ****   assert_param(IS_FMC_SDCLOCK_PERIOD(Init->SDClockPeriod));
 1409              		.loc 1 1350 3 view .LVU485
1351:../Drivers/STM32F4xx_HAL_Driver/Src/stm32f4xx_ll_fmc.c ****   assert_param(IS_FMC_READ_BURST(Init->ReadBurst));
 1410              		.loc 1 1351 3 view .LVU486
1352:../Drivers/STM32F4xx_HAL_Driver/Src/stm32f4xx_ll_fmc.c ****   assert_param(IS_FMC_READPIPE_DELAY(Init->ReadPipeDelay));   
 1411              		.loc 1 1352 3 view .LVU487
1353:../Drivers/STM32F4xx_HAL_Driver/Src/stm32f4xx_ll_fmc.c **** 
1354:../Drivers/STM32F4xx_HAL_Driver/Src/stm32f4xx_ll_fmc.c ****   /* Set SDRAM bank configuration parameters */
1355:../Drivers/STM32F4xx_HAL_Driver/Src/stm32f4xx_ll_fmc.c ****   if (Init->SDBank != FMC_SDRAM_BANK2) 
 1412              		.loc 1 1355 3 view .LVU488
 1413              		.loc 1 1355 11 is_stmt 0 view .LVU489
 1414 0002 0B68     		ldr	r3, [r1]
 1415              		.loc 1 1355 6 view .LVU490
 1416 0004 012B     		cmp	r3, #1
 1417 0006 1AD0     		beq	.L88
1356:../Drivers/STM32F4xx_HAL_Driver/Src/stm32f4xx_ll_fmc.c ****   {    
1357:../Drivers/STM32F4xx_HAL_Driver/Src/stm32f4xx_ll_fmc.c ****     tmpr1 = Device->SDCR[FMC_SDRAM_BANK1];
 1418              		.loc 1 1357 5 is_stmt 1 view .LVU491
 1419              		.loc 1 1357 11 is_stmt 0 view .LVU492
 1420 0008 0268     		ldr	r2, [r0]
 1421              	.LVL108:
1358:../Drivers/STM32F4xx_HAL_Driver/Src/stm32f4xx_ll_fmc.c ****     
1359:../Drivers/STM32F4xx_HAL_Driver/Src/stm32f4xx_ll_fmc.c ****     /* Clear NC, NR, MWID, NB, CAS, WP, SDCLK, RBURST, and RPIPE bits */
1360:../Drivers/STM32F4xx_HAL_Driver/Src/stm32f4xx_ll_fmc.c ****     tmpr1 &= ((uint32_t)~(FMC_SDCR1_NC  | FMC_SDCR1_NR | FMC_SDCR1_MWID | \
 1422              		.loc 1 1360 5 is_stmt 1 view .LVU493
 1423              		.loc 1 1360 11 is_stmt 0 view .LVU494
 1424 000a 22F4FF42 		bic	r2, r2, #32640
 1425              	.LVL109:
 1426              		.loc 1 1360 11 view .LVU495
 1427 000e 22F07F02 		bic	r2, r2, #127
 1428              	.LVL110:
1361:../Drivers/STM32F4xx_HAL_Driver/Src/stm32f4xx_ll_fmc.c ****                          FMC_SDCR1_NB  | FMC_SDCR1_CAS | FMC_SDCR1_WP | \
1362:../Drivers/STM32F4xx_HAL_Driver/Src/stm32f4xx_ll_fmc.c ****                          FMC_SDCR1_SDCLK | FMC_SDCR1_RBURST | FMC_SDCR1_RPIPE));
1363:../Drivers/STM32F4xx_HAL_Driver/Src/stm32f4xx_ll_fmc.c ****   
1364:../Drivers/STM32F4xx_HAL_Driver/Src/stm32f4xx_ll_fmc.c ****   
1365:../Drivers/STM32F4xx_HAL_Driver/Src/stm32f4xx_ll_fmc.c ****     tmpr1 |= (uint32_t)(Init->ColumnBitsNumber   |\
 1429              		.loc 1 1365 5 is_stmt 1 view .LVU496
ARM GAS  /tmp/cc2u48vv.s 			page 51


 1430              		.loc 1 1365 29 is_stmt 0 view .LVU497
 1431 0012 4B68     		ldr	r3, [r1, #4]
1366:../Drivers/STM32F4xx_HAL_Driver/Src/stm32f4xx_ll_fmc.c ****                                                Init->RowBitsNumber      |\
 1432              		.loc 1 1366 52 view .LVU498
 1433 0014 8C68     		ldr	r4, [r1, #8]
1365:../Drivers/STM32F4xx_HAL_Driver/Src/stm32f4xx_ll_fmc.c ****                                                Init->RowBitsNumber      |\
 1434              		.loc 1 1365 50 view .LVU499
 1435 0016 2343     		orrs	r3, r3, r4
1367:../Drivers/STM32F4xx_HAL_Driver/Src/stm32f4xx_ll_fmc.c ****                                                Init->MemoryDataWidth    |\
 1436              		.loc 1 1367 52 view .LVU500
 1437 0018 CC68     		ldr	r4, [r1, #12]
1366:../Drivers/STM32F4xx_HAL_Driver/Src/stm32f4xx_ll_fmc.c ****                                                Init->RowBitsNumber      |\
 1438              		.loc 1 1366 73 view .LVU501
 1439 001a 2343     		orrs	r3, r3, r4
1368:../Drivers/STM32F4xx_HAL_Driver/Src/stm32f4xx_ll_fmc.c ****                                                Init->InternalBankNumber |\
 1440              		.loc 1 1368 52 view .LVU502
 1441 001c 0C69     		ldr	r4, [r1, #16]
1367:../Drivers/STM32F4xx_HAL_Driver/Src/stm32f4xx_ll_fmc.c ****                                                Init->MemoryDataWidth    |\
 1442              		.loc 1 1367 73 view .LVU503
 1443 001e 2343     		orrs	r3, r3, r4
1369:../Drivers/STM32F4xx_HAL_Driver/Src/stm32f4xx_ll_fmc.c ****                                                Init->CASLatency         |\
 1444              		.loc 1 1369 52 view .LVU504
 1445 0020 4C69     		ldr	r4, [r1, #20]
1368:../Drivers/STM32F4xx_HAL_Driver/Src/stm32f4xx_ll_fmc.c ****                                                Init->InternalBankNumber |\
 1446              		.loc 1 1368 73 view .LVU505
 1447 0022 2343     		orrs	r3, r3, r4
1370:../Drivers/STM32F4xx_HAL_Driver/Src/stm32f4xx_ll_fmc.c ****                                                Init->WriteProtection    |\
 1448              		.loc 1 1370 52 view .LVU506
 1449 0024 8C69     		ldr	r4, [r1, #24]
1369:../Drivers/STM32F4xx_HAL_Driver/Src/stm32f4xx_ll_fmc.c ****                                                Init->CASLatency         |\
 1450              		.loc 1 1369 73 view .LVU507
 1451 0026 2343     		orrs	r3, r3, r4
1371:../Drivers/STM32F4xx_HAL_Driver/Src/stm32f4xx_ll_fmc.c ****                                                Init->SDClockPeriod      |\
 1452              		.loc 1 1371 52 view .LVU508
 1453 0028 CC69     		ldr	r4, [r1, #28]
1370:../Drivers/STM32F4xx_HAL_Driver/Src/stm32f4xx_ll_fmc.c ****                                                Init->WriteProtection    |\
 1454              		.loc 1 1370 73 view .LVU509
 1455 002a 2343     		orrs	r3, r3, r4
1372:../Drivers/STM32F4xx_HAL_Driver/Src/stm32f4xx_ll_fmc.c ****                                                Init->ReadBurst          |\
 1456              		.loc 1 1372 52 view .LVU510
 1457 002c 0C6A     		ldr	r4, [r1, #32]
1371:../Drivers/STM32F4xx_HAL_Driver/Src/stm32f4xx_ll_fmc.c ****                                                Init->SDClockPeriod      |\
 1458              		.loc 1 1371 73 view .LVU511
 1459 002e 2343     		orrs	r3, r3, r4
1373:../Drivers/STM32F4xx_HAL_Driver/Src/stm32f4xx_ll_fmc.c ****                                                Init->ReadPipeDelay
 1460              		.loc 1 1373 52 view .LVU512
 1461 0030 496A     		ldr	r1, [r1, #36]
 1462              	.LVL111:
1372:../Drivers/STM32F4xx_HAL_Driver/Src/stm32f4xx_ll_fmc.c ****                                                Init->ReadBurst          |\
 1463              		.loc 1 1372 73 view .LVU513
 1464 0032 0B43     		orrs	r3, r3, r1
1365:../Drivers/STM32F4xx_HAL_Driver/Src/stm32f4xx_ll_fmc.c ****                                                Init->RowBitsNumber      |\
 1465              		.loc 1 1365 11 view .LVU514
 1466 0034 1343     		orrs	r3, r3, r2
 1467              	.LVL112:
1374:../Drivers/STM32F4xx_HAL_Driver/Src/stm32f4xx_ll_fmc.c ****                                                );
1375:../Drivers/STM32F4xx_HAL_Driver/Src/stm32f4xx_ll_fmc.c ****     Device->SDCR[FMC_SDRAM_BANK1] = tmpr1;
ARM GAS  /tmp/cc2u48vv.s 			page 52


 1468              		.loc 1 1375 5 is_stmt 1 view .LVU515
 1469              		.loc 1 1375 35 is_stmt 0 view .LVU516
 1470 0036 0360     		str	r3, [r0]
 1471              	.LVL113:
 1472              	.L89:
1376:../Drivers/STM32F4xx_HAL_Driver/Src/stm32f4xx_ll_fmc.c ****   }
1377:../Drivers/STM32F4xx_HAL_Driver/Src/stm32f4xx_ll_fmc.c ****   else /* FMC_Bank2_SDRAM */                      
1378:../Drivers/STM32F4xx_HAL_Driver/Src/stm32f4xx_ll_fmc.c ****   {
1379:../Drivers/STM32F4xx_HAL_Driver/Src/stm32f4xx_ll_fmc.c ****     tmpr1 = Device->SDCR[FMC_SDRAM_BANK1];
1380:../Drivers/STM32F4xx_HAL_Driver/Src/stm32f4xx_ll_fmc.c ****     
1381:../Drivers/STM32F4xx_HAL_Driver/Src/stm32f4xx_ll_fmc.c ****     /* Clear NC, NR, MWID, NB, CAS, WP, SDCLK, RBURST, and RPIPE bits */
1382:../Drivers/STM32F4xx_HAL_Driver/Src/stm32f4xx_ll_fmc.c ****     tmpr1 &= ((uint32_t)~(FMC_SDCR1_SDCLK | FMC_SDCR1_RBURST | FMC_SDCR1_RPIPE));
1383:../Drivers/STM32F4xx_HAL_Driver/Src/stm32f4xx_ll_fmc.c ****     
1384:../Drivers/STM32F4xx_HAL_Driver/Src/stm32f4xx_ll_fmc.c ****     tmpr1 |= (uint32_t)(Init->SDClockPeriod      |\
1385:../Drivers/STM32F4xx_HAL_Driver/Src/stm32f4xx_ll_fmc.c ****                         Init->ReadBurst          |\
1386:../Drivers/STM32F4xx_HAL_Driver/Src/stm32f4xx_ll_fmc.c ****                         Init->ReadPipeDelay);  
1387:../Drivers/STM32F4xx_HAL_Driver/Src/stm32f4xx_ll_fmc.c ****     
1388:../Drivers/STM32F4xx_HAL_Driver/Src/stm32f4xx_ll_fmc.c ****     tmpr2 = Device->SDCR[FMC_SDRAM_BANK2];
1389:../Drivers/STM32F4xx_HAL_Driver/Src/stm32f4xx_ll_fmc.c ****     
1390:../Drivers/STM32F4xx_HAL_Driver/Src/stm32f4xx_ll_fmc.c ****     /* Clear NC, NR, MWID, NB, CAS, WP, SDCLK, RBURST, and RPIPE bits */
1391:../Drivers/STM32F4xx_HAL_Driver/Src/stm32f4xx_ll_fmc.c ****     tmpr2 &= ((uint32_t)~(FMC_SDCR1_NC  | FMC_SDCR1_NR | FMC_SDCR1_MWID | \
1392:../Drivers/STM32F4xx_HAL_Driver/Src/stm32f4xx_ll_fmc.c ****                           FMC_SDCR1_NB  | FMC_SDCR1_CAS | FMC_SDCR1_WP | \
1393:../Drivers/STM32F4xx_HAL_Driver/Src/stm32f4xx_ll_fmc.c ****                           FMC_SDCR1_SDCLK | FMC_SDCR1_RBURST | FMC_SDCR1_RPIPE));
1394:../Drivers/STM32F4xx_HAL_Driver/Src/stm32f4xx_ll_fmc.c **** 
1395:../Drivers/STM32F4xx_HAL_Driver/Src/stm32f4xx_ll_fmc.c ****     tmpr2 |= (uint32_t)(Init->ColumnBitsNumber   |\
1396:../Drivers/STM32F4xx_HAL_Driver/Src/stm32f4xx_ll_fmc.c ****                        Init->RowBitsNumber      |\
1397:../Drivers/STM32F4xx_HAL_Driver/Src/stm32f4xx_ll_fmc.c ****                        Init->MemoryDataWidth    |\
1398:../Drivers/STM32F4xx_HAL_Driver/Src/stm32f4xx_ll_fmc.c ****                        Init->InternalBankNumber |\
1399:../Drivers/STM32F4xx_HAL_Driver/Src/stm32f4xx_ll_fmc.c ****                        Init->CASLatency         |\
1400:../Drivers/STM32F4xx_HAL_Driver/Src/stm32f4xx_ll_fmc.c ****                        Init->WriteProtection);
1401:../Drivers/STM32F4xx_HAL_Driver/Src/stm32f4xx_ll_fmc.c **** 
1402:../Drivers/STM32F4xx_HAL_Driver/Src/stm32f4xx_ll_fmc.c ****     Device->SDCR[FMC_SDRAM_BANK1] = tmpr1;
1403:../Drivers/STM32F4xx_HAL_Driver/Src/stm32f4xx_ll_fmc.c ****     Device->SDCR[FMC_SDRAM_BANK2] = tmpr2;
1404:../Drivers/STM32F4xx_HAL_Driver/Src/stm32f4xx_ll_fmc.c ****   }  
1405:../Drivers/STM32F4xx_HAL_Driver/Src/stm32f4xx_ll_fmc.c ****   
1406:../Drivers/STM32F4xx_HAL_Driver/Src/stm32f4xx_ll_fmc.c ****   return HAL_OK;
 1473              		.loc 1 1406 3 is_stmt 1 view .LVU517
1407:../Drivers/STM32F4xx_HAL_Driver/Src/stm32f4xx_ll_fmc.c **** }
 1474              		.loc 1 1407 1 is_stmt 0 view .LVU518
 1475 0038 0020     		movs	r0, #0
 1476              	.LVL114:
 1477              		.loc 1 1407 1 view .LVU519
 1478 003a 30BC     		pop	{r4, r5}
 1479              	.LCFI19:
 1480              		.cfi_remember_state
 1481              		.cfi_restore 5
 1482              		.cfi_restore 4
 1483              		.cfi_def_cfa_offset 0
 1484 003c 7047     		bx	lr
 1485              	.LVL115:
 1486              	.L88:
 1487              	.LCFI20:
 1488              		.cfi_restore_state
1379:../Drivers/STM32F4xx_HAL_Driver/Src/stm32f4xx_ll_fmc.c ****     
 1489              		.loc 1 1379 5 is_stmt 1 view .LVU520
1379:../Drivers/STM32F4xx_HAL_Driver/Src/stm32f4xx_ll_fmc.c ****     
 1490              		.loc 1 1379 11 is_stmt 0 view .LVU521
ARM GAS  /tmp/cc2u48vv.s 			page 53


 1491 003e 0268     		ldr	r2, [r0]
 1492              	.LVL116:
1382:../Drivers/STM32F4xx_HAL_Driver/Src/stm32f4xx_ll_fmc.c ****     
 1493              		.loc 1 1382 5 is_stmt 1 view .LVU522
1382:../Drivers/STM32F4xx_HAL_Driver/Src/stm32f4xx_ll_fmc.c ****     
 1494              		.loc 1 1382 11 is_stmt 0 view .LVU523
 1495 0040 22F4F842 		bic	r2, r2, #31744
 1496              	.LVL117:
1384:../Drivers/STM32F4xx_HAL_Driver/Src/stm32f4xx_ll_fmc.c ****                         Init->ReadBurst          |\
 1497              		.loc 1 1384 5 is_stmt 1 view .LVU524
1384:../Drivers/STM32F4xx_HAL_Driver/Src/stm32f4xx_ll_fmc.c ****                         Init->ReadBurst          |\
 1498              		.loc 1 1384 29 is_stmt 0 view .LVU525
 1499 0044 CB69     		ldr	r3, [r1, #28]
1385:../Drivers/STM32F4xx_HAL_Driver/Src/stm32f4xx_ll_fmc.c ****                         Init->ReadPipeDelay);  
 1500              		.loc 1 1385 29 view .LVU526
 1501 0046 0C6A     		ldr	r4, [r1, #32]
1384:../Drivers/STM32F4xx_HAL_Driver/Src/stm32f4xx_ll_fmc.c ****                         Init->ReadBurst          |\
 1502              		.loc 1 1384 50 view .LVU527
 1503 0048 1C43     		orrs	r4, r4, r3
1386:../Drivers/STM32F4xx_HAL_Driver/Src/stm32f4xx_ll_fmc.c ****     
 1504              		.loc 1 1386 29 view .LVU528
 1505 004a 4B6A     		ldr	r3, [r1, #36]
1385:../Drivers/STM32F4xx_HAL_Driver/Src/stm32f4xx_ll_fmc.c ****                         Init->ReadPipeDelay);  
 1506              		.loc 1 1385 50 view .LVU529
 1507 004c 1C43     		orrs	r4, r4, r3
1384:../Drivers/STM32F4xx_HAL_Driver/Src/stm32f4xx_ll_fmc.c ****                         Init->ReadBurst          |\
 1508              		.loc 1 1384 11 view .LVU530
 1509 004e 1443     		orrs	r4, r4, r2
 1510              	.LVL118:
1388:../Drivers/STM32F4xx_HAL_Driver/Src/stm32f4xx_ll_fmc.c ****     
 1511              		.loc 1 1388 5 is_stmt 1 view .LVU531
1388:../Drivers/STM32F4xx_HAL_Driver/Src/stm32f4xx_ll_fmc.c ****     
 1512              		.loc 1 1388 11 is_stmt 0 view .LVU532
 1513 0050 4268     		ldr	r2, [r0, #4]
 1514              	.LVL119:
1391:../Drivers/STM32F4xx_HAL_Driver/Src/stm32f4xx_ll_fmc.c ****                           FMC_SDCR1_NB  | FMC_SDCR1_CAS | FMC_SDCR1_WP | \
 1515              		.loc 1 1391 5 is_stmt 1 view .LVU533
1391:../Drivers/STM32F4xx_HAL_Driver/Src/stm32f4xx_ll_fmc.c ****                           FMC_SDCR1_NB  | FMC_SDCR1_CAS | FMC_SDCR1_WP | \
 1516              		.loc 1 1391 11 is_stmt 0 view .LVU534
 1517 0052 22F4FF42 		bic	r2, r2, #32640
 1518              	.LVL120:
1391:../Drivers/STM32F4xx_HAL_Driver/Src/stm32f4xx_ll_fmc.c ****                           FMC_SDCR1_NB  | FMC_SDCR1_CAS | FMC_SDCR1_WP | \
 1519              		.loc 1 1391 11 view .LVU535
 1520 0056 22F07F02 		bic	r2, r2, #127
 1521              	.LVL121:
1395:../Drivers/STM32F4xx_HAL_Driver/Src/stm32f4xx_ll_fmc.c ****                        Init->RowBitsNumber      |\
 1522              		.loc 1 1395 5 is_stmt 1 view .LVU536
1395:../Drivers/STM32F4xx_HAL_Driver/Src/stm32f4xx_ll_fmc.c ****                        Init->RowBitsNumber      |\
 1523              		.loc 1 1395 29 is_stmt 0 view .LVU537
 1524 005a 4B68     		ldr	r3, [r1, #4]
1395:../Drivers/STM32F4xx_HAL_Driver/Src/stm32f4xx_ll_fmc.c ****                        Init->RowBitsNumber      |\
 1525              		.loc 1 1395 50 view .LVU538
 1526 005c 8D68     		ldr	r5, [r1, #8]
 1527 005e 2B43     		orrs	r3, r3, r5
1396:../Drivers/STM32F4xx_HAL_Driver/Src/stm32f4xx_ll_fmc.c ****                        Init->MemoryDataWidth    |\
 1528              		.loc 1 1396 49 view .LVU539
 1529 0060 CD68     		ldr	r5, [r1, #12]
ARM GAS  /tmp/cc2u48vv.s 			page 54


 1530 0062 2B43     		orrs	r3, r3, r5
1397:../Drivers/STM32F4xx_HAL_Driver/Src/stm32f4xx_ll_fmc.c ****                        Init->InternalBankNumber |\
 1531              		.loc 1 1397 49 view .LVU540
 1532 0064 0D69     		ldr	r5, [r1, #16]
 1533 0066 2B43     		orrs	r3, r3, r5
1398:../Drivers/STM32F4xx_HAL_Driver/Src/stm32f4xx_ll_fmc.c ****                        Init->CASLatency         |\
 1534              		.loc 1 1398 49 view .LVU541
 1535 0068 4D69     		ldr	r5, [r1, #20]
 1536 006a 2B43     		orrs	r3, r3, r5
1400:../Drivers/STM32F4xx_HAL_Driver/Src/stm32f4xx_ll_fmc.c **** 
 1537              		.loc 1 1400 28 view .LVU542
 1538 006c 8969     		ldr	r1, [r1, #24]
 1539              	.LVL122:
1399:../Drivers/STM32F4xx_HAL_Driver/Src/stm32f4xx_ll_fmc.c ****                        Init->WriteProtection);
 1540              		.loc 1 1399 49 view .LVU543
 1541 006e 0B43     		orrs	r3, r3, r1
1395:../Drivers/STM32F4xx_HAL_Driver/Src/stm32f4xx_ll_fmc.c ****                        Init->RowBitsNumber      |\
 1542              		.loc 1 1395 11 view .LVU544
 1543 0070 1343     		orrs	r3, r3, r2
 1544              	.LVL123:
1402:../Drivers/STM32F4xx_HAL_Driver/Src/stm32f4xx_ll_fmc.c ****     Device->SDCR[FMC_SDRAM_BANK2] = tmpr2;
 1545              		.loc 1 1402 5 is_stmt 1 view .LVU545
1402:../Drivers/STM32F4xx_HAL_Driver/Src/stm32f4xx_ll_fmc.c ****     Device->SDCR[FMC_SDRAM_BANK2] = tmpr2;
 1546              		.loc 1 1402 35 is_stmt 0 view .LVU546
 1547 0072 0460     		str	r4, [r0]
1403:../Drivers/STM32F4xx_HAL_Driver/Src/stm32f4xx_ll_fmc.c ****   }  
 1548              		.loc 1 1403 5 is_stmt 1 view .LVU547
1403:../Drivers/STM32F4xx_HAL_Driver/Src/stm32f4xx_ll_fmc.c ****   }  
 1549              		.loc 1 1403 35 is_stmt 0 view .LVU548
 1550 0074 4360     		str	r3, [r0, #4]
 1551 0076 DFE7     		b	.L89
 1552              		.cfi_endproc
 1553              	.LFE148:
 1555              		.section	.text.FMC_SDRAM_Timing_Init,"ax",%progbits
 1556              		.align	1
 1557              		.global	FMC_SDRAM_Timing_Init
 1558              		.syntax unified
 1559              		.thumb
 1560              		.thumb_func
 1561              		.fpu fpv4-sp-d16
 1563              	FMC_SDRAM_Timing_Init:
 1564              	.LVL124:
 1565              	.LFB149:
1408:../Drivers/STM32F4xx_HAL_Driver/Src/stm32f4xx_ll_fmc.c **** 
1409:../Drivers/STM32F4xx_HAL_Driver/Src/stm32f4xx_ll_fmc.c **** /**
1410:../Drivers/STM32F4xx_HAL_Driver/Src/stm32f4xx_ll_fmc.c ****   * @brief  Initializes the FMC_SDRAM device timing according to the specified
1411:../Drivers/STM32F4xx_HAL_Driver/Src/stm32f4xx_ll_fmc.c ****   *         parameters in the FMC_SDRAM_TimingTypeDef
1412:../Drivers/STM32F4xx_HAL_Driver/Src/stm32f4xx_ll_fmc.c ****   * @param  Device Pointer to SDRAM device instance
1413:../Drivers/STM32F4xx_HAL_Driver/Src/stm32f4xx_ll_fmc.c ****   * @param  Timing Pointer to SDRAM Timing structure
1414:../Drivers/STM32F4xx_HAL_Driver/Src/stm32f4xx_ll_fmc.c ****   * @param  Bank SDRAM bank number   
1415:../Drivers/STM32F4xx_HAL_Driver/Src/stm32f4xx_ll_fmc.c ****   * @retval HAL status
1416:../Drivers/STM32F4xx_HAL_Driver/Src/stm32f4xx_ll_fmc.c ****   */
1417:../Drivers/STM32F4xx_HAL_Driver/Src/stm32f4xx_ll_fmc.c **** HAL_StatusTypeDef FMC_SDRAM_Timing_Init(FMC_SDRAM_TypeDef *Device, FMC_SDRAM_TimingTypeDef *Timing,
1418:../Drivers/STM32F4xx_HAL_Driver/Src/stm32f4xx_ll_fmc.c **** {
 1566              		.loc 1 1418 1 is_stmt 1 view -0
 1567              		.cfi_startproc
 1568              		@ args = 0, pretend = 0, frame = 0
ARM GAS  /tmp/cc2u48vv.s 			page 55


 1569              		@ frame_needed = 0, uses_anonymous_args = 0
 1570              		.loc 1 1418 1 is_stmt 0 view .LVU550
 1571 0000 10B5     		push	{r4, lr}
 1572              	.LCFI21:
 1573              		.cfi_def_cfa_offset 8
 1574              		.cfi_offset 4, -8
 1575              		.cfi_offset 14, -4
1419:../Drivers/STM32F4xx_HAL_Driver/Src/stm32f4xx_ll_fmc.c ****   uint32_t tmpr1 = 0U;
 1576              		.loc 1 1419 3 is_stmt 1 view .LVU551
 1577              	.LVL125:
1420:../Drivers/STM32F4xx_HAL_Driver/Src/stm32f4xx_ll_fmc.c ****   uint32_t tmpr2 = 0U;
 1578              		.loc 1 1420 3 view .LVU552
1421:../Drivers/STM32F4xx_HAL_Driver/Src/stm32f4xx_ll_fmc.c ****     
1422:../Drivers/STM32F4xx_HAL_Driver/Src/stm32f4xx_ll_fmc.c ****   /* Check the parameters */
1423:../Drivers/STM32F4xx_HAL_Driver/Src/stm32f4xx_ll_fmc.c ****   assert_param(IS_FMC_SDRAM_DEVICE(Device));
 1579              		.loc 1 1423 3 view .LVU553
1424:../Drivers/STM32F4xx_HAL_Driver/Src/stm32f4xx_ll_fmc.c ****   assert_param(IS_FMC_LOADTOACTIVE_DELAY(Timing->LoadToActiveDelay));
 1580              		.loc 1 1424 3 view .LVU554
1425:../Drivers/STM32F4xx_HAL_Driver/Src/stm32f4xx_ll_fmc.c ****   assert_param(IS_FMC_EXITSELFREFRESH_DELAY(Timing->ExitSelfRefreshDelay));
 1581              		.loc 1 1425 3 view .LVU555
1426:../Drivers/STM32F4xx_HAL_Driver/Src/stm32f4xx_ll_fmc.c ****   assert_param(IS_FMC_SELFREFRESH_TIME(Timing->SelfRefreshTime));
 1582              		.loc 1 1426 3 view .LVU556
1427:../Drivers/STM32F4xx_HAL_Driver/Src/stm32f4xx_ll_fmc.c ****   assert_param(IS_FMC_ROWCYCLE_DELAY(Timing->RowCycleDelay));
 1583              		.loc 1 1427 3 view .LVU557
1428:../Drivers/STM32F4xx_HAL_Driver/Src/stm32f4xx_ll_fmc.c ****   assert_param(IS_FMC_WRITE_RECOVERY_TIME(Timing->WriteRecoveryTime));
 1584              		.loc 1 1428 3 view .LVU558
1429:../Drivers/STM32F4xx_HAL_Driver/Src/stm32f4xx_ll_fmc.c ****   assert_param(IS_FMC_RP_DELAY(Timing->RPDelay));
 1585              		.loc 1 1429 3 view .LVU559
1430:../Drivers/STM32F4xx_HAL_Driver/Src/stm32f4xx_ll_fmc.c ****   assert_param(IS_FMC_RCD_DELAY(Timing->RCDDelay));
 1586              		.loc 1 1430 3 view .LVU560
1431:../Drivers/STM32F4xx_HAL_Driver/Src/stm32f4xx_ll_fmc.c ****   assert_param(IS_FMC_SDRAM_BANK(Bank));
 1587              		.loc 1 1431 3 view .LVU561
1432:../Drivers/STM32F4xx_HAL_Driver/Src/stm32f4xx_ll_fmc.c ****   
1433:../Drivers/STM32F4xx_HAL_Driver/Src/stm32f4xx_ll_fmc.c ****   /* Set SDRAM device timing parameters */ 
1434:../Drivers/STM32F4xx_HAL_Driver/Src/stm32f4xx_ll_fmc.c ****   if (Bank != FMC_SDRAM_BANK2) 
 1588              		.loc 1 1434 3 view .LVU562
 1589              		.loc 1 1434 6 is_stmt 0 view .LVU563
 1590 0002 012A     		cmp	r2, #1
 1591 0004 25D0     		beq	.L92
1435:../Drivers/STM32F4xx_HAL_Driver/Src/stm32f4xx_ll_fmc.c ****   { 
1436:../Drivers/STM32F4xx_HAL_Driver/Src/stm32f4xx_ll_fmc.c ****     tmpr1 = Device->SDTR[FMC_SDRAM_BANK1];
 1592              		.loc 1 1436 5 is_stmt 1 view .LVU564
 1593              		.loc 1 1436 11 is_stmt 0 view .LVU565
 1594 0006 8268     		ldr	r2, [r0, #8]
 1595              	.LVL126:
1437:../Drivers/STM32F4xx_HAL_Driver/Src/stm32f4xx_ll_fmc.c ****     
1438:../Drivers/STM32F4xx_HAL_Driver/Src/stm32f4xx_ll_fmc.c ****     /* Clear TMRD, TXSR, TRAS, TRC, TWR, TRP and TRCD bits */
1439:../Drivers/STM32F4xx_HAL_Driver/Src/stm32f4xx_ll_fmc.c ****     tmpr1 &= ((uint32_t)~(FMC_SDTR1_TMRD  | FMC_SDTR1_TXSR | FMC_SDTR1_TRAS | \
 1596              		.loc 1 1439 5 is_stmt 1 view .LVU566
 1597              		.loc 1 1439 11 is_stmt 0 view .LVU567
 1598 0008 02F07042 		and	r2, r2, #-268435456
 1599              	.LVL127:
1440:../Drivers/STM32F4xx_HAL_Driver/Src/stm32f4xx_ll_fmc.c ****                           FMC_SDTR1_TRC  | FMC_SDTR1_TWR | FMC_SDTR1_TRP | \
1441:../Drivers/STM32F4xx_HAL_Driver/Src/stm32f4xx_ll_fmc.c ****                           FMC_SDTR1_TRCD));
1442:../Drivers/STM32F4xx_HAL_Driver/Src/stm32f4xx_ll_fmc.c ****     
1443:../Drivers/STM32F4xx_HAL_Driver/Src/stm32f4xx_ll_fmc.c ****     tmpr1 |= (uint32_t)(((Timing->LoadToActiveDelay)-1U)           |\
 1600              		.loc 1 1443 5 is_stmt 1 view .LVU568
ARM GAS  /tmp/cc2u48vv.s 			page 56


 1601              		.loc 1 1443 33 is_stmt 0 view .LVU569
 1602 000c 0B68     		ldr	r3, [r1]
 1603              		.loc 1 1443 53 view .LVU570
 1604 000e 013B     		subs	r3, r3, #1
1444:../Drivers/STM32F4xx_HAL_Driver/Src/stm32f4xx_ll_fmc.c ****                        (((Timing->ExitSelfRefreshDelay)-1U) << 4U) |\
 1605              		.loc 1 1444 56 view .LVU571
 1606 0010 4C68     		ldr	r4, [r1, #4]
 1607 0012 04F1FF3C 		add	ip, r4, #-1
1443:../Drivers/STM32F4xx_HAL_Driver/Src/stm32f4xx_ll_fmc.c ****                        (((Timing->ExitSelfRefreshDelay)-1U) << 4U) |\
 1608              		.loc 1 1443 68 view .LVU572
 1609 0016 43EA0C13 		orr	r3, r3, ip, lsl #4
1445:../Drivers/STM32F4xx_HAL_Driver/Src/stm32f4xx_ll_fmc.c ****                        (((Timing->SelfRefreshTime)-1U) << 8U)      |\
 1610              		.loc 1 1445 51 view .LVU573
 1611 001a 8C68     		ldr	r4, [r1, #8]
 1612 001c 04F1FF3C 		add	ip, r4, #-1
1444:../Drivers/STM32F4xx_HAL_Driver/Src/stm32f4xx_ll_fmc.c ****                        (((Timing->ExitSelfRefreshDelay)-1U) << 4U) |\
 1613              		.loc 1 1444 68 view .LVU574
 1614 0020 43EA0C23 		orr	r3, r3, ip, lsl #8
1446:../Drivers/STM32F4xx_HAL_Driver/Src/stm32f4xx_ll_fmc.c ****                        (((Timing->RowCycleDelay)-1U) << 12U)       |\
 1615              		.loc 1 1446 49 view .LVU575
 1616 0024 CC68     		ldr	r4, [r1, #12]
 1617 0026 04F1FF3C 		add	ip, r4, #-1
1445:../Drivers/STM32F4xx_HAL_Driver/Src/stm32f4xx_ll_fmc.c ****                        (((Timing->SelfRefreshTime)-1U) << 8U)      |\
 1618              		.loc 1 1445 68 view .LVU576
 1619 002a 43EA0C33 		orr	r3, r3, ip, lsl #12
1447:../Drivers/STM32F4xx_HAL_Driver/Src/stm32f4xx_ll_fmc.c ****                        (((Timing->WriteRecoveryTime)-1U) <<16U)    |\
 1620              		.loc 1 1447 53 view .LVU577
 1621 002e 0C69     		ldr	r4, [r1, #16]
 1622 0030 04F1FF3C 		add	ip, r4, #-1
1446:../Drivers/STM32F4xx_HAL_Driver/Src/stm32f4xx_ll_fmc.c ****                        (((Timing->RowCycleDelay)-1U) << 12U)       |\
 1623              		.loc 1 1446 68 view .LVU578
 1624 0034 43EA0C43 		orr	r3, r3, ip, lsl #16
1448:../Drivers/STM32F4xx_HAL_Driver/Src/stm32f4xx_ll_fmc.c ****                        (((Timing->RPDelay)-1U) << 20U)             |\
 1625              		.loc 1 1448 43 view .LVU579
 1626 0038 4C69     		ldr	r4, [r1, #20]
 1627 003a 04F1FF3C 		add	ip, r4, #-1
1447:../Drivers/STM32F4xx_HAL_Driver/Src/stm32f4xx_ll_fmc.c ****                        (((Timing->WriteRecoveryTime)-1U) <<16U)    |\
 1628              		.loc 1 1447 68 view .LVU580
 1629 003e 43EA0C53 		orr	r3, r3, ip, lsl #20
1449:../Drivers/STM32F4xx_HAL_Driver/Src/stm32f4xx_ll_fmc.c ****                        (((Timing->RCDDelay)-1U) << 24U));
 1630              		.loc 1 1449 33 view .LVU581
 1631 0042 8969     		ldr	r1, [r1, #24]
 1632              	.LVL128:
 1633              		.loc 1 1449 44 view .LVU582
 1634 0044 0139     		subs	r1, r1, #1
1443:../Drivers/STM32F4xx_HAL_Driver/Src/stm32f4xx_ll_fmc.c ****                        (((Timing->ExitSelfRefreshDelay)-1U) << 4U) |\
 1635              		.loc 1 1443 14 view .LVU583
 1636 0046 43EA0163 		orr	r3, r3, r1, lsl #24
1443:../Drivers/STM32F4xx_HAL_Driver/Src/stm32f4xx_ll_fmc.c ****                        (((Timing->ExitSelfRefreshDelay)-1U) << 4U) |\
 1637              		.loc 1 1443 11 view .LVU584
 1638 004a 1343     		orrs	r3, r3, r2
 1639              	.LVL129:
1450:../Drivers/STM32F4xx_HAL_Driver/Src/stm32f4xx_ll_fmc.c ****     Device->SDTR[FMC_SDRAM_BANK1] = tmpr1;
 1640              		.loc 1 1450 5 is_stmt 1 view .LVU585
 1641              		.loc 1 1450 35 is_stmt 0 view .LVU586
 1642 004c 8360     		str	r3, [r0, #8]
 1643              	.LVL130:
ARM GAS  /tmp/cc2u48vv.s 			page 57


 1644              	.L93:
1451:../Drivers/STM32F4xx_HAL_Driver/Src/stm32f4xx_ll_fmc.c ****   }
1452:../Drivers/STM32F4xx_HAL_Driver/Src/stm32f4xx_ll_fmc.c ****    else /* FMC_Bank2_SDRAM */
1453:../Drivers/STM32F4xx_HAL_Driver/Src/stm32f4xx_ll_fmc.c ****   {
1454:../Drivers/STM32F4xx_HAL_Driver/Src/stm32f4xx_ll_fmc.c ****     tmpr1 = Device->SDTR[FMC_SDRAM_BANK1];
1455:../Drivers/STM32F4xx_HAL_Driver/Src/stm32f4xx_ll_fmc.c ****     
1456:../Drivers/STM32F4xx_HAL_Driver/Src/stm32f4xx_ll_fmc.c ****     /* Clear TRC and TRP bits */
1457:../Drivers/STM32F4xx_HAL_Driver/Src/stm32f4xx_ll_fmc.c ****     tmpr1 &= ((uint32_t)~(FMC_SDTR1_TRC | FMC_SDTR1_TRP));
1458:../Drivers/STM32F4xx_HAL_Driver/Src/stm32f4xx_ll_fmc.c ****     
1459:../Drivers/STM32F4xx_HAL_Driver/Src/stm32f4xx_ll_fmc.c ****     tmpr1 |= (uint32_t)((((Timing->RowCycleDelay)-1U) << 12U)       |\
1460:../Drivers/STM32F4xx_HAL_Driver/Src/stm32f4xx_ll_fmc.c ****                         (((Timing->RPDelay)-1U) << 20U)); 
1461:../Drivers/STM32F4xx_HAL_Driver/Src/stm32f4xx_ll_fmc.c ****     
1462:../Drivers/STM32F4xx_HAL_Driver/Src/stm32f4xx_ll_fmc.c ****     tmpr2 = Device->SDTR[FMC_SDRAM_BANK2];
1463:../Drivers/STM32F4xx_HAL_Driver/Src/stm32f4xx_ll_fmc.c ****     
1464:../Drivers/STM32F4xx_HAL_Driver/Src/stm32f4xx_ll_fmc.c ****     /* Clear TMRD, TXSR, TRAS, TRC, TWR, TRP and TRCD bits */
1465:../Drivers/STM32F4xx_HAL_Driver/Src/stm32f4xx_ll_fmc.c ****     tmpr2 &= ((uint32_t)~(FMC_SDTR1_TMRD  | FMC_SDTR1_TXSR | FMC_SDTR1_TRAS | \
1466:../Drivers/STM32F4xx_HAL_Driver/Src/stm32f4xx_ll_fmc.c ****                           FMC_SDTR1_TRC  | FMC_SDTR1_TWR | FMC_SDTR1_TRP | \
1467:../Drivers/STM32F4xx_HAL_Driver/Src/stm32f4xx_ll_fmc.c ****                           FMC_SDTR1_TRCD));
1468:../Drivers/STM32F4xx_HAL_Driver/Src/stm32f4xx_ll_fmc.c ****     
1469:../Drivers/STM32F4xx_HAL_Driver/Src/stm32f4xx_ll_fmc.c ****     tmpr2 |= (uint32_t)((((Timing->LoadToActiveDelay)-1U)           |\
1470:../Drivers/STM32F4xx_HAL_Driver/Src/stm32f4xx_ll_fmc.c ****                        (((Timing->ExitSelfRefreshDelay)-1U) << 4U)  |\
1471:../Drivers/STM32F4xx_HAL_Driver/Src/stm32f4xx_ll_fmc.c ****                        (((Timing->SelfRefreshTime)-1U) << 8U)       |\
1472:../Drivers/STM32F4xx_HAL_Driver/Src/stm32f4xx_ll_fmc.c ****                        (((Timing->WriteRecoveryTime)-1U) <<16U)     |\
1473:../Drivers/STM32F4xx_HAL_Driver/Src/stm32f4xx_ll_fmc.c ****                        (((Timing->RCDDelay)-1U) << 24U)));   
1474:../Drivers/STM32F4xx_HAL_Driver/Src/stm32f4xx_ll_fmc.c **** 
1475:../Drivers/STM32F4xx_HAL_Driver/Src/stm32f4xx_ll_fmc.c ****     Device->SDTR[FMC_SDRAM_BANK1] = tmpr1;
1476:../Drivers/STM32F4xx_HAL_Driver/Src/stm32f4xx_ll_fmc.c ****     Device->SDTR[FMC_SDRAM_BANK2] = tmpr2;
1477:../Drivers/STM32F4xx_HAL_Driver/Src/stm32f4xx_ll_fmc.c ****   }
1478:../Drivers/STM32F4xx_HAL_Driver/Src/stm32f4xx_ll_fmc.c ****   return HAL_OK;
 1645              		.loc 1 1478 3 is_stmt 1 view .LVU587
1479:../Drivers/STM32F4xx_HAL_Driver/Src/stm32f4xx_ll_fmc.c **** }
 1646              		.loc 1 1479 1 is_stmt 0 view .LVU588
 1647 004e 0020     		movs	r0, #0
 1648              	.LVL131:
 1649              		.loc 1 1479 1 view .LVU589
 1650 0050 10BD     		pop	{r4, pc}
 1651              	.LVL132:
 1652              	.L92:
1454:../Drivers/STM32F4xx_HAL_Driver/Src/stm32f4xx_ll_fmc.c ****     
 1653              		.loc 1 1454 5 is_stmt 1 view .LVU590
1454:../Drivers/STM32F4xx_HAL_Driver/Src/stm32f4xx_ll_fmc.c ****     
 1654              		.loc 1 1454 11 is_stmt 0 view .LVU591
 1655 0052 8368     		ldr	r3, [r0, #8]
 1656              	.LVL133:
1457:../Drivers/STM32F4xx_HAL_Driver/Src/stm32f4xx_ll_fmc.c ****     
 1657              		.loc 1 1457 5 is_stmt 1 view .LVU592
1457:../Drivers/STM32F4xx_HAL_Driver/Src/stm32f4xx_ll_fmc.c ****     
 1658              		.loc 1 1457 11 is_stmt 0 view .LVU593
 1659 0054 23F4700C 		bic	ip, r3, #15728640
 1660 0058 2CF4704C 		bic	ip, ip, #61440
 1661              	.LVL134:
1459:../Drivers/STM32F4xx_HAL_Driver/Src/stm32f4xx_ll_fmc.c ****                         (((Timing->RPDelay)-1U) << 20U)); 
 1662              		.loc 1 1459 5 is_stmt 1 view .LVU594
1459:../Drivers/STM32F4xx_HAL_Driver/Src/stm32f4xx_ll_fmc.c ****                         (((Timing->RPDelay)-1U) << 20U)); 
 1663              		.loc 1 1459 34 is_stmt 0 view .LVU595
 1664 005c CB68     		ldr	r3, [r1, #12]
1459:../Drivers/STM32F4xx_HAL_Driver/Src/stm32f4xx_ll_fmc.c ****                         (((Timing->RPDelay)-1U) << 20U)); 
ARM GAS  /tmp/cc2u48vv.s 			page 58


 1665              		.loc 1 1459 50 view .LVU596
 1666 005e 03F1FF3E 		add	lr, r3, #-1
1460:../Drivers/STM32F4xx_HAL_Driver/Src/stm32f4xx_ll_fmc.c ****     
 1667              		.loc 1 1460 34 view .LVU597
 1668 0062 4B69     		ldr	r3, [r1, #20]
1460:../Drivers/STM32F4xx_HAL_Driver/Src/stm32f4xx_ll_fmc.c ****     
 1669              		.loc 1 1460 44 view .LVU598
 1670 0064 5A1E     		subs	r2, r3, #1
 1671              	.LVL135:
1460:../Drivers/STM32F4xx_HAL_Driver/Src/stm32f4xx_ll_fmc.c ****     
 1672              		.loc 1 1460 49 view .LVU599
 1673 0066 1205     		lsls	r2, r2, #20
1459:../Drivers/STM32F4xx_HAL_Driver/Src/stm32f4xx_ll_fmc.c ****                         (((Timing->RPDelay)-1U) << 20U)); 
 1674              		.loc 1 1459 14 view .LVU600
 1675 0068 42EA0E32 		orr	r2, r2, lr, lsl #12
1459:../Drivers/STM32F4xx_HAL_Driver/Src/stm32f4xx_ll_fmc.c ****                         (((Timing->RPDelay)-1U) << 20U)); 
 1676              		.loc 1 1459 11 view .LVU601
 1677 006c 42EA0C02 		orr	r2, r2, ip
 1678              	.LVL136:
1462:../Drivers/STM32F4xx_HAL_Driver/Src/stm32f4xx_ll_fmc.c ****     
 1679              		.loc 1 1462 5 is_stmt 1 view .LVU602
1462:../Drivers/STM32F4xx_HAL_Driver/Src/stm32f4xx_ll_fmc.c ****     
 1680              		.loc 1 1462 11 is_stmt 0 view .LVU603
 1681 0070 C368     		ldr	r3, [r0, #12]
 1682              	.LVL137:
1465:../Drivers/STM32F4xx_HAL_Driver/Src/stm32f4xx_ll_fmc.c ****                           FMC_SDTR1_TRC  | FMC_SDTR1_TWR | FMC_SDTR1_TRP | \
 1683              		.loc 1 1465 5 is_stmt 1 view .LVU604
1465:../Drivers/STM32F4xx_HAL_Driver/Src/stm32f4xx_ll_fmc.c ****                           FMC_SDTR1_TRC  | FMC_SDTR1_TWR | FMC_SDTR1_TRP | \
 1684              		.loc 1 1465 11 is_stmt 0 view .LVU605
 1685 0072 03F0704C 		and	ip, r3, #-268435456
 1686              	.LVL138:
1469:../Drivers/STM32F4xx_HAL_Driver/Src/stm32f4xx_ll_fmc.c ****                        (((Timing->ExitSelfRefreshDelay)-1U) << 4U)  |\
 1687              		.loc 1 1469 5 is_stmt 1 view .LVU606
1469:../Drivers/STM32F4xx_HAL_Driver/Src/stm32f4xx_ll_fmc.c ****                        (((Timing->ExitSelfRefreshDelay)-1U) << 4U)  |\
 1688              		.loc 1 1469 34 is_stmt 0 view .LVU607
 1689 0076 0B68     		ldr	r3, [r1]
1469:../Drivers/STM32F4xx_HAL_Driver/Src/stm32f4xx_ll_fmc.c ****                        (((Timing->ExitSelfRefreshDelay)-1U) << 4U)  |\
 1690              		.loc 1 1469 54 view .LVU608
 1691 0078 013B     		subs	r3, r3, #1
1470:../Drivers/STM32F4xx_HAL_Driver/Src/stm32f4xx_ll_fmc.c ****                        (((Timing->SelfRefreshTime)-1U) << 8U)       |\
 1692              		.loc 1 1470 56 view .LVU609
 1693 007a 4C68     		ldr	r4, [r1, #4]
 1694 007c 04F1FF3E 		add	lr, r4, #-1
1469:../Drivers/STM32F4xx_HAL_Driver/Src/stm32f4xx_ll_fmc.c ****                        (((Timing->ExitSelfRefreshDelay)-1U) << 4U)  |\
 1695              		.loc 1 1469 69 view .LVU610
 1696 0080 43EA0E13 		orr	r3, r3, lr, lsl #4
1471:../Drivers/STM32F4xx_HAL_Driver/Src/stm32f4xx_ll_fmc.c ****                        (((Timing->WriteRecoveryTime)-1U) <<16U)     |\
 1697              		.loc 1 1471 51 view .LVU611
 1698 0084 8C68     		ldr	r4, [r1, #8]
 1699 0086 04F1FF3E 		add	lr, r4, #-1
1470:../Drivers/STM32F4xx_HAL_Driver/Src/stm32f4xx_ll_fmc.c ****                        (((Timing->SelfRefreshTime)-1U) << 8U)       |\
 1700              		.loc 1 1470 69 view .LVU612
 1701 008a 43EA0E23 		orr	r3, r3, lr, lsl #8
1472:../Drivers/STM32F4xx_HAL_Driver/Src/stm32f4xx_ll_fmc.c ****                        (((Timing->RCDDelay)-1U) << 24U)));   
 1702              		.loc 1 1472 53 view .LVU613
 1703 008e 0C69     		ldr	r4, [r1, #16]
 1704 0090 04F1FF3E 		add	lr, r4, #-1
ARM GAS  /tmp/cc2u48vv.s 			page 59


1471:../Drivers/STM32F4xx_HAL_Driver/Src/stm32f4xx_ll_fmc.c ****                        (((Timing->WriteRecoveryTime)-1U) <<16U)     |\
 1705              		.loc 1 1471 69 view .LVU614
 1706 0094 43EA0E43 		orr	r3, r3, lr, lsl #16
1473:../Drivers/STM32F4xx_HAL_Driver/Src/stm32f4xx_ll_fmc.c **** 
 1707              		.loc 1 1473 33 view .LVU615
 1708 0098 8969     		ldr	r1, [r1, #24]
 1709              	.LVL139:
1473:../Drivers/STM32F4xx_HAL_Driver/Src/stm32f4xx_ll_fmc.c **** 
 1710              		.loc 1 1473 44 view .LVU616
 1711 009a 0139     		subs	r1, r1, #1
1469:../Drivers/STM32F4xx_HAL_Driver/Src/stm32f4xx_ll_fmc.c ****                        (((Timing->ExitSelfRefreshDelay)-1U) << 4U)  |\
 1712              		.loc 1 1469 14 view .LVU617
 1713 009c 43EA0163 		orr	r3, r3, r1, lsl #24
1469:../Drivers/STM32F4xx_HAL_Driver/Src/stm32f4xx_ll_fmc.c ****                        (((Timing->ExitSelfRefreshDelay)-1U) << 4U)  |\
 1714              		.loc 1 1469 11 view .LVU618
 1715 00a0 43EA0C03 		orr	r3, r3, ip
 1716              	.LVL140:
1475:../Drivers/STM32F4xx_HAL_Driver/Src/stm32f4xx_ll_fmc.c ****     Device->SDTR[FMC_SDRAM_BANK2] = tmpr2;
 1717              		.loc 1 1475 5 is_stmt 1 view .LVU619
1475:../Drivers/STM32F4xx_HAL_Driver/Src/stm32f4xx_ll_fmc.c ****     Device->SDTR[FMC_SDRAM_BANK2] = tmpr2;
 1718              		.loc 1 1475 35 is_stmt 0 view .LVU620
 1719 00a4 8260     		str	r2, [r0, #8]
1476:../Drivers/STM32F4xx_HAL_Driver/Src/stm32f4xx_ll_fmc.c ****   }
 1720              		.loc 1 1476 5 is_stmt 1 view .LVU621
1476:../Drivers/STM32F4xx_HAL_Driver/Src/stm32f4xx_ll_fmc.c ****   }
 1721              		.loc 1 1476 35 is_stmt 0 view .LVU622
 1722 00a6 C360     		str	r3, [r0, #12]
 1723 00a8 D1E7     		b	.L93
 1724              		.cfi_endproc
 1725              	.LFE149:
 1727              		.section	.text.FMC_SDRAM_DeInit,"ax",%progbits
 1728              		.align	1
 1729              		.global	FMC_SDRAM_DeInit
 1730              		.syntax unified
 1731              		.thumb
 1732              		.thumb_func
 1733              		.fpu fpv4-sp-d16
 1735              	FMC_SDRAM_DeInit:
 1736              	.LVL141:
 1737              	.LFB150:
1480:../Drivers/STM32F4xx_HAL_Driver/Src/stm32f4xx_ll_fmc.c **** 
1481:../Drivers/STM32F4xx_HAL_Driver/Src/stm32f4xx_ll_fmc.c **** /**
1482:../Drivers/STM32F4xx_HAL_Driver/Src/stm32f4xx_ll_fmc.c ****   * @brief  DeInitializes the FMC_SDRAM peripheral 
1483:../Drivers/STM32F4xx_HAL_Driver/Src/stm32f4xx_ll_fmc.c ****   * @param  Device Pointer to SDRAM device instance
1484:../Drivers/STM32F4xx_HAL_Driver/Src/stm32f4xx_ll_fmc.c ****   * @retval HAL status
1485:../Drivers/STM32F4xx_HAL_Driver/Src/stm32f4xx_ll_fmc.c ****   */
1486:../Drivers/STM32F4xx_HAL_Driver/Src/stm32f4xx_ll_fmc.c **** HAL_StatusTypeDef FMC_SDRAM_DeInit(FMC_SDRAM_TypeDef *Device, uint32_t Bank)
1487:../Drivers/STM32F4xx_HAL_Driver/Src/stm32f4xx_ll_fmc.c **** {
 1738              		.loc 1 1487 1 is_stmt 1 view -0
 1739              		.cfi_startproc
 1740              		@ args = 0, pretend = 0, frame = 0
 1741              		@ frame_needed = 0, uses_anonymous_args = 0
 1742              		@ link register save eliminated.
 1743              		.loc 1 1487 1 is_stmt 0 view .LVU624
 1744 0000 0346     		mov	r3, r0
1488:../Drivers/STM32F4xx_HAL_Driver/Src/stm32f4xx_ll_fmc.c ****   /* Check the parameters */
1489:../Drivers/STM32F4xx_HAL_Driver/Src/stm32f4xx_ll_fmc.c ****   assert_param(IS_FMC_SDRAM_DEVICE(Device));
ARM GAS  /tmp/cc2u48vv.s 			page 60


 1745              		.loc 1 1489 3 is_stmt 1 view .LVU625
1490:../Drivers/STM32F4xx_HAL_Driver/Src/stm32f4xx_ll_fmc.c ****   assert_param(IS_FMC_SDRAM_BANK(Bank));
 1746              		.loc 1 1490 3 view .LVU626
1491:../Drivers/STM32F4xx_HAL_Driver/Src/stm32f4xx_ll_fmc.c ****   
1492:../Drivers/STM32F4xx_HAL_Driver/Src/stm32f4xx_ll_fmc.c ****   /* De-initialize the SDRAM device */
1493:../Drivers/STM32F4xx_HAL_Driver/Src/stm32f4xx_ll_fmc.c ****   Device->SDCR[Bank] = 0x000002D0U;
 1747              		.loc 1 1493 3 view .LVU627
 1748              		.loc 1 1493 22 is_stmt 0 view .LVU628
 1749 0002 4FF43472 		mov	r2, #720
 1750 0006 40F82120 		str	r2, [r0, r1, lsl #2]
1494:../Drivers/STM32F4xx_HAL_Driver/Src/stm32f4xx_ll_fmc.c ****   Device->SDTR[Bank] = 0x0FFFFFFFU;    
 1751              		.loc 1 1494 3 is_stmt 1 view .LVU629
 1752              		.loc 1 1494 22 is_stmt 0 view .LVU630
 1753 000a 0231     		adds	r1, r1, #2
 1754              	.LVL142:
 1755              		.loc 1 1494 22 view .LVU631
 1756 000c 6FF07042 		mvn	r2, #-268435456
 1757 0010 40F82120 		str	r2, [r0, r1, lsl #2]
1495:../Drivers/STM32F4xx_HAL_Driver/Src/stm32f4xx_ll_fmc.c ****   Device->SDCMR      = 0x00000000U;
 1758              		.loc 1 1495 3 is_stmt 1 view .LVU632
 1759              		.loc 1 1495 22 is_stmt 0 view .LVU633
 1760 0014 0020     		movs	r0, #0
 1761              	.LVL143:
 1762              		.loc 1 1495 22 view .LVU634
 1763 0016 1861     		str	r0, [r3, #16]
1496:../Drivers/STM32F4xx_HAL_Driver/Src/stm32f4xx_ll_fmc.c ****   Device->SDRTR      = 0x00000000U;
 1764              		.loc 1 1496 3 is_stmt 1 view .LVU635
 1765              		.loc 1 1496 22 is_stmt 0 view .LVU636
 1766 0018 5861     		str	r0, [r3, #20]
1497:../Drivers/STM32F4xx_HAL_Driver/Src/stm32f4xx_ll_fmc.c ****   Device->SDSR       = 0x00000000U;
 1767              		.loc 1 1497 3 is_stmt 1 view .LVU637
 1768              		.loc 1 1497 22 is_stmt 0 view .LVU638
 1769 001a 9861     		str	r0, [r3, #24]
1498:../Drivers/STM32F4xx_HAL_Driver/Src/stm32f4xx_ll_fmc.c **** 
1499:../Drivers/STM32F4xx_HAL_Driver/Src/stm32f4xx_ll_fmc.c ****   return HAL_OK;
 1770              		.loc 1 1499 3 is_stmt 1 view .LVU639
1500:../Drivers/STM32F4xx_HAL_Driver/Src/stm32f4xx_ll_fmc.c **** }
 1771              		.loc 1 1500 1 is_stmt 0 view .LVU640
 1772 001c 7047     		bx	lr
 1773              		.cfi_endproc
 1774              	.LFE150:
 1776              		.section	.text.FMC_SDRAM_WriteProtection_Enable,"ax",%progbits
 1777              		.align	1
 1778              		.global	FMC_SDRAM_WriteProtection_Enable
 1779              		.syntax unified
 1780              		.thumb
 1781              		.thumb_func
 1782              		.fpu fpv4-sp-d16
 1784              	FMC_SDRAM_WriteProtection_Enable:
 1785              	.LVL144:
 1786              	.LFB151:
1501:../Drivers/STM32F4xx_HAL_Driver/Src/stm32f4xx_ll_fmc.c **** 
1502:../Drivers/STM32F4xx_HAL_Driver/Src/stm32f4xx_ll_fmc.c **** /**
1503:../Drivers/STM32F4xx_HAL_Driver/Src/stm32f4xx_ll_fmc.c ****   * @}
1504:../Drivers/STM32F4xx_HAL_Driver/Src/stm32f4xx_ll_fmc.c ****   */
1505:../Drivers/STM32F4xx_HAL_Driver/Src/stm32f4xx_ll_fmc.c ****   
1506:../Drivers/STM32F4xx_HAL_Driver/Src/stm32f4xx_ll_fmc.c **** /** @addtogroup FMC_LL_SDRAMPrivate_Functions_Group2
ARM GAS  /tmp/cc2u48vv.s 			page 61


1507:../Drivers/STM32F4xx_HAL_Driver/Src/stm32f4xx_ll_fmc.c ****   *  @brief   management functions 
1508:../Drivers/STM32F4xx_HAL_Driver/Src/stm32f4xx_ll_fmc.c ****   *
1509:../Drivers/STM32F4xx_HAL_Driver/Src/stm32f4xx_ll_fmc.c **** @verbatim   
1510:../Drivers/STM32F4xx_HAL_Driver/Src/stm32f4xx_ll_fmc.c ****   ==============================================================================
1511:../Drivers/STM32F4xx_HAL_Driver/Src/stm32f4xx_ll_fmc.c ****                       ##### FMC_SDRAM Control functions #####
1512:../Drivers/STM32F4xx_HAL_Driver/Src/stm32f4xx_ll_fmc.c ****   ==============================================================================  
1513:../Drivers/STM32F4xx_HAL_Driver/Src/stm32f4xx_ll_fmc.c ****   [..]
1514:../Drivers/STM32F4xx_HAL_Driver/Src/stm32f4xx_ll_fmc.c ****     This subsection provides a set of functions allowing to control dynamically
1515:../Drivers/STM32F4xx_HAL_Driver/Src/stm32f4xx_ll_fmc.c ****     the FMC SDRAM interface.
1516:../Drivers/STM32F4xx_HAL_Driver/Src/stm32f4xx_ll_fmc.c **** 
1517:../Drivers/STM32F4xx_HAL_Driver/Src/stm32f4xx_ll_fmc.c **** @endverbatim
1518:../Drivers/STM32F4xx_HAL_Driver/Src/stm32f4xx_ll_fmc.c ****   * @{
1519:../Drivers/STM32F4xx_HAL_Driver/Src/stm32f4xx_ll_fmc.c ****   */
1520:../Drivers/STM32F4xx_HAL_Driver/Src/stm32f4xx_ll_fmc.c **** /**
1521:../Drivers/STM32F4xx_HAL_Driver/Src/stm32f4xx_ll_fmc.c ****   * @brief  Enables dynamically FMC_SDRAM write protection.
1522:../Drivers/STM32F4xx_HAL_Driver/Src/stm32f4xx_ll_fmc.c ****   * @param  Device Pointer to SDRAM device instance
1523:../Drivers/STM32F4xx_HAL_Driver/Src/stm32f4xx_ll_fmc.c ****   * @param  Bank SDRAM bank number 
1524:../Drivers/STM32F4xx_HAL_Driver/Src/stm32f4xx_ll_fmc.c ****   * @retval HAL status
1525:../Drivers/STM32F4xx_HAL_Driver/Src/stm32f4xx_ll_fmc.c ****   */
1526:../Drivers/STM32F4xx_HAL_Driver/Src/stm32f4xx_ll_fmc.c **** HAL_StatusTypeDef FMC_SDRAM_WriteProtection_Enable(FMC_SDRAM_TypeDef *Device, uint32_t Bank)
1527:../Drivers/STM32F4xx_HAL_Driver/Src/stm32f4xx_ll_fmc.c **** { 
 1787              		.loc 1 1527 1 is_stmt 1 view -0
 1788              		.cfi_startproc
 1789              		@ args = 0, pretend = 0, frame = 0
 1790              		@ frame_needed = 0, uses_anonymous_args = 0
 1791              		@ link register save eliminated.
1528:../Drivers/STM32F4xx_HAL_Driver/Src/stm32f4xx_ll_fmc.c ****   /* Check the parameters */
1529:../Drivers/STM32F4xx_HAL_Driver/Src/stm32f4xx_ll_fmc.c ****   assert_param(IS_FMC_SDRAM_DEVICE(Device));
 1792              		.loc 1 1529 3 view .LVU642
1530:../Drivers/STM32F4xx_HAL_Driver/Src/stm32f4xx_ll_fmc.c ****   assert_param(IS_FMC_SDRAM_BANK(Bank));
 1793              		.loc 1 1530 3 view .LVU643
1531:../Drivers/STM32F4xx_HAL_Driver/Src/stm32f4xx_ll_fmc.c ****   
1532:../Drivers/STM32F4xx_HAL_Driver/Src/stm32f4xx_ll_fmc.c ****   /* Enable write protection */
1533:../Drivers/STM32F4xx_HAL_Driver/Src/stm32f4xx_ll_fmc.c ****   Device->SDCR[Bank] |= FMC_SDRAM_WRITE_PROTECTION_ENABLE;
 1794              		.loc 1 1533 3 view .LVU644
 1795              		.loc 1 1533 22 is_stmt 0 view .LVU645
 1796 0000 50F82130 		ldr	r3, [r0, r1, lsl #2]
 1797 0004 43F40073 		orr	r3, r3, #512
 1798 0008 40F82130 		str	r3, [r0, r1, lsl #2]
1534:../Drivers/STM32F4xx_HAL_Driver/Src/stm32f4xx_ll_fmc.c ****   
1535:../Drivers/STM32F4xx_HAL_Driver/Src/stm32f4xx_ll_fmc.c ****   return HAL_OK;  
 1799              		.loc 1 1535 3 is_stmt 1 view .LVU646
1536:../Drivers/STM32F4xx_HAL_Driver/Src/stm32f4xx_ll_fmc.c **** }
 1800              		.loc 1 1536 1 is_stmt 0 view .LVU647
 1801 000c 0020     		movs	r0, #0
 1802              	.LVL145:
 1803              		.loc 1 1536 1 view .LVU648
 1804 000e 7047     		bx	lr
 1805              		.cfi_endproc
 1806              	.LFE151:
 1808              		.section	.text.FMC_SDRAM_WriteProtection_Disable,"ax",%progbits
 1809              		.align	1
 1810              		.global	FMC_SDRAM_WriteProtection_Disable
 1811              		.syntax unified
 1812              		.thumb
 1813              		.thumb_func
 1814              		.fpu fpv4-sp-d16
ARM GAS  /tmp/cc2u48vv.s 			page 62


 1816              	FMC_SDRAM_WriteProtection_Disable:
 1817              	.LVL146:
 1818              	.LFB152:
1537:../Drivers/STM32F4xx_HAL_Driver/Src/stm32f4xx_ll_fmc.c **** 
1538:../Drivers/STM32F4xx_HAL_Driver/Src/stm32f4xx_ll_fmc.c **** /**
1539:../Drivers/STM32F4xx_HAL_Driver/Src/stm32f4xx_ll_fmc.c ****   * @brief  Disables dynamically FMC_SDRAM write protection.
1540:../Drivers/STM32F4xx_HAL_Driver/Src/stm32f4xx_ll_fmc.c ****   * @param  hsdram FMC_SDRAM handle
1541:../Drivers/STM32F4xx_HAL_Driver/Src/stm32f4xx_ll_fmc.c ****   * @retval HAL status
1542:../Drivers/STM32F4xx_HAL_Driver/Src/stm32f4xx_ll_fmc.c ****   */
